
miv-rv32im-freertos-port-test.elf:     file format elf32-littleriscv
miv-rv32im-freertos-port-test.elf
architecture: riscv:rv32, flags 0x00000112:
EXEC_P, HAS_SYMS, D_PAGED
start address 0x80000000

Program Header:
    LOAD off    0x00001000 vaddr 0x80000000 paddr 0x80000000 align 2**12
         filesz 0x00002cd0 memsz 0x0003be10 flags rwx

Sections:
Idx Name           Size      VMA       LMA       File off  Algn  Flags
  0 .text          00002bd0  80000000  80000000  00001000  2**4  CONTENTS, ALLOC, LOAD, READONLY, CODE
  1 .sdata         00000020  80002bd0  80002bd0  00003bd0  2**4  CONTENTS, ALLOC, LOAD, DATA
  2 .data          000000e0  80002bf0  80002bf0  00003bf0  2**4  CONTENTS, ALLOC, LOAD, DATA
  3 .sbss          00000070  80002cd0  80002cd0  00003cd0  2**4  ALLOC
  4 .bss           000190d0  80002d40  80002d40  00003cd0  2**4  ALLOC
  5 .heap          00010000  8001be10  8001be10  00003cd0  2**4  ALLOC
  6 .stack         00010000  8002be10  8002be10  00003cd0  2**4  ALLOC
  7 .debug_line    0000780a  00000000  00000000  00003cd0  2**0  CONTENTS, READONLY, DEBUGGING, OCTETS
  8 .debug_info    000040a0  00000000  00000000  0000b4da  2**0  CONTENTS, READONLY, DEBUGGING, OCTETS
  9 .debug_abbrev  000010a7  00000000  00000000  0000f57a  2**0  CONTENTS, READONLY, DEBUGGING, OCTETS
 10 .debug_aranges 00000688  00000000  00000000  00010628  2**3  CONTENTS, READONLY, DEBUGGING, OCTETS
 11 .debug_str     00011705  00000000  00000000  00010cb0  2**0  CONTENTS, READONLY, DEBUGGING, OCTETS
 12 .debug_ranges  00000598  00000000  00000000  000223b5  2**0  CONTENTS, READONLY, DEBUGGING, OCTETS
 13 .debug_macro   00004c8e  00000000  00000000  0002294d  2**0  CONTENTS, READONLY, DEBUGGING, OCTETS
 14 .comment       00000034  00000000  00000000  000275db  2**0  CONTENTS, READONLY
 15 .debug_frame   0000198c  00000000  00000000  00027610  2**2  CONTENTS, READONLY, DEBUGGING, OCTETS
SYMBOL TABLE:
80000000 l    d  .text	00000000 .text
80002bd0 l    d  .sdata	00000000 .sdata
80002bf0 l    d  .data	00000000 .data
80002cd0 l    d  .sbss	00000000 .sbss
80002d40 l    d  .bss	00000000 .bss
8001be10 l    d  .heap	00000000 .heap
8002be10 l    d  .stack	00000000 .stack
00000000 l    d  .debug_line	00000000 .debug_line
00000000 l    d  .debug_info	00000000 .debug_info
00000000 l    d  .debug_abbrev	00000000 .debug_abbrev
00000000 l    d  .debug_aranges	00000000 .debug_aranges
00000000 l    d  .debug_str	00000000 .debug_str
00000000 l    d  .debug_ranges	00000000 .debug_ranges
00000000 l    d  .debug_macro	00000000 .debug_macro
00000000 l    d  .comment	00000000 .comment
00000000 l    d  .debug_frame	00000000 .debug_frame
00000000 l    df *ABS*	00000000 ./riscv_hal/entry.o
8000000c l       .text	00000000 handle_reset
80000004 l       .text	00000000 nmi_vector
80000008 l       .text	00000000 trap_vector
80000030 l       .text	00000000 trap_entry
00000000 l    df *ABS*	00000000 init.c
80000160 l     F .text	00000054 zero_section
00000000 l    df *ABS*	00000000 riscv_hal.c
8000023c l     F .text	000000b8 PLIC_DisableIRQ
800002f4 l     F .text	00000044 PLIC_ClaimIRQ
80000338 l     F .text	0000004c PLIC_CompleteIRQ
80002cd0 l     O .sbss	00000008 g_systick_increment
00000000 l    df *ABS*	00000000 riscv_hal_stubs.c
00000000 l    df *ABS*	00000000 syscall.c
80002cd8 l     O .sbss	00000008 g_stdio_uart
80002ce0 l     O .sbss	00000004 g_stdio_uart_init_done
80000b44 l     F .text	0000002c stub
00000000 l    df *ABS*	00000000 core_uart_apb.c
00000000 l    df *ABS*	00000000 heap_2.c
80002d40 l     O .bss	00019000 ucHeap
80002ce8 l     O .sbss	00000008 xStart
80002cf0 l     O .sbss	00000008 xEnd
80002bd0 l     O .sdata	00000004 xFreeBytesRemaining
80002cf8 l     O .sbss	00000004 xHeapHasBeenInitialised.0
80001258 l     F .text	0000007c prvHeapInit
00000000 l    df *ABS*	00000000 port.c
800012d4 l     F .text	0000004c raise_soft_interrupt
80002bd4 l     O .sdata	00000004 uxCriticalNesting
80002bd8 l     O .sdata	00000004 mtime
80002bdc l     O .sdata	00000004 mtimecmp
80001394 l     F .text	000000cc prvSetNextTimerInterrupt
8000152c l     F .text	0000002c prvTaskExitError
00000000 l    df *ABS*	00000000 list.c
00000000 l    df *ABS*	00000000 string.c
00000000 l    df *ABS*	00000000 tasks.c
8001bd40 l     O .bss	00000064 pxReadyTasksLists
8001bda4 l     O .bss	00000014 xDelayedTaskList1
8001bdb8 l     O .bss	00000014 xDelayedTaskList2
80002d04 l     O .sbss	00000004 pxDelayedTaskList
80002d08 l     O .sbss	00000004 pxOverflowDelayedTaskList
8001bdcc l     O .bss	00000014 xPendingReadyList
8001bde0 l     O .bss	00000014 xTasksWaitingTermination
80002d0c l     O .sbss	00000004 uxTasksDeleted
8001bdf4 l     O .bss	00000014 xSuspendedTaskList
80002d10 l     O .sbss	00000004 uxCurrentNumberOfTasks
80002d14 l     O .sbss	00000004 xTickCount
80002d18 l     O .sbss	00000004 uxTopReadyPriority
80002d1c l     O .sbss	00000004 xSchedulerRunning
80002d20 l     O .sbss	00000004 uxPendedTicks
80002d24 l     O .sbss	00000004 xYieldPending
80002d28 l     O .sbss	00000004 xNumOfOverflows
80002d2c l     O .sbss	00000004 uxTaskNumber
80002d30 l     O .sbss	00000004 xNextTaskUnblockTime
80002d34 l     O .sbss	00000004 uxSchedulerSuspended
800026ac l     F .text	000000c0 prvAllocateTCBAndStack
80002384 l     F .text	00000138 prvInitialiseTCBVariables
800024bc l     F .text	000000c0 prvInitialiseTaskLists
800027ac l     F .text	00000060 prvResetNextTaskUnblockTime
80002624 l     F .text	00000088 prvAddCurrentTaskToDelayedList
8000234c l     F .text	00000038 prvIdleTask
8000257c l     F .text	000000a8 prvCheckTasksWaitingTermination
8000276c l     F .text	00000040 prvDeleteTCB
00000000 l    df *ABS*	00000000 main.c
8000280c l     F .text	000000d0 PLIC_init
800029c8 l     F .text	00000030 vUartTestTask1
800029f8 l     F .text	00000058 myTask1
00000000 l    df *ABS*	00000000 syswrite.c
00000000 l    df *ABS*	00000000 writer.c
00000000 l    df *ABS*	00000000 impure.c
80002c70 l     O .data	00000060 impure_data
80001354 g     F .text	00000040 vPortExitCritical
00010000 g       *ABS*	00000000 STACK_SIZE
8000071c  w    F .text	00000020 External_11_IRQHandler
800033d0 g       .sdata	00000000 __global_pointer$
80002bf0 g       *ABS*	00000000 __data_load
800015ec g     F .text	000000cc SysTick_Handler
8000065c  w    F .text	00000020 External_5_IRQHandler
80000d20 g       .text	00000000 HW_get_8bit_reg_field
80002d00 g     O .sbss	00000004 pxCurrentTCB
80002cd0 g       .sbss	00000000 __sbss_start
80002ce4 g     O .sbss	00000004 errno
80000c58 g       .text	00000000 HW_set_32bit_reg
8000083c  w    F .text	00000020 External_20_IRQHandler
800016b8 g     F .text	00000044 xPortStartScheduler
80000384 g     F .text	00000024 __enable_irq
80001bb8 g     F .text	0000021c xTaskGenericCreate
80002bd0 g       .sdata	00000000 __sdata_start
8000118c g     F .text	000000cc vPortFree
80002d38 g     O .sbss	00000008 g_uart
80000cf8 g       .text	00000000 HW_set_8bit_reg_field
800008fc  w    F .text	00000020 External_26_IRQHandler
800004f0 g     F .text	000000cc handle_trap
8000188c g     F .text	00000088 vListInsertEnd
00080000 g       *ABS*	00000000 RAM_SIZE
800006fc  w    F .text	00000020 External_10_IRQHandler
80001864 g     F .text	00000028 vListInitialiseItem
8000097c  w    F .text	00000020 External_30_IRQHandler
800007dc  w    F .text	00000020 External_17_IRQHandler
8002be10 g       .heap	00000000 _heap_end
80000af8 g     F .text	0000004c _isatty
8001be10 g       .bss	00000000 __bss_end
80000fac g     F .text	000001e0 pvPortMalloc
800001b4 g     F .text	0000006c _init
80001800 g     F .text	00000064 vListInitialise
80000ce8 g       .text	00000000 HW_set_8bit_reg
80000cf0 g       .text	00000000 HW_get_8bit_reg
80002d40 g       .sbss	00000000 __sbss_end
80000c68 g       .text	00000000 HW_set_32bit_reg_field
80002a50 g     F .text	00000018 write
80002998 g     F .text	00000014 vApplicationMallocFailedHook
800008dc  w    F .text	00000020 External_25_IRQHandler
8003be10 g       .stack	00000000 __stack_top
8000095c  w    F .text	00000020 External_29_IRQHandler
80000efc g     F .text	000000b0 UART_polled_tx_string
800009bc g     F .text	000000ec write_hex
8000075c  w    F .text	00000020 External_13_IRQHandler
800005fc  w    F .text	00000020 External_2_IRQHandler
00010000 g       *ABS*	00000000 HEAP_SIZE
8000073c  w    F .text	00000020 External_12_IRQHandler
80000e48 g     F .text	000000b4 UART_send
80000000 g       .text	00000000 _start
80001ee8 g     F .text	00000028 vTaskSuspendAll
800003a8 g     F .text	000000a8 handle_m_timer_interrupt
800019e8 g     F .text	00000098 uxListRemove
80002bd0 g       *ABS*	00000000 __sdata_load
80002cd0 g       .data	00000000 __data_end
80002260 g     F .text	000000ec vTaskSwitchContext
800007fc  w    F .text	00000020 External_18_IRQHandler
80000c90 g       .text	00000000 HW_get_32bit_reg_field
8000087c  w    F .text	00000020 External_22_IRQHandler
8000079c  w    F .text	00000020 External_15_IRQHandler
800017d8 g     F .text	00000028 vPortYield
80000000 g       *ABS*	00000000 RAM_START_ADDRESS
80002d40 g       .bss	00000000 __bss_start
800007bc  w    F .text	00000020 External_16_IRQHandler
80001a80 g     F .text	000000e8 memset
800028dc g     F .text	000000bc main
80001914 g     F .text	000000d4 vListInsert
8000093c  w    F .text	00000020 External_28_IRQHandler
80000ca8 g       .text	00000000 HW_get_16bit_reg
80002bf0 g       .sdata	00000000 __sdata_end
8002be10 g       .heap	00000000 __heap_end
8000077c  w    F .text	00000020 External_14_IRQHandler
80000220 g     F .text	0000001c _fini
80001f10 g     F .text	00000164 xTaskResumeAll
80001e58 g     F .text	00000090 vTaskStartScheduler
80002bf0 g     O .data	00000080 ext_irq_handler_table
80002a68 g     F .text	00000048 _write_r
80000cb0 g       .text	00000000 HW_set_16bit_reg_field
80002be0 g     O .sdata	00000004 _impure_ptr
8002be10 g       .stack	00000000 __stack_bottom
800016fc g     F .text	000000dc Software_IRQHandler
8000091c  w    F .text	00000020 External_27_IRQHandler
800006bc  w    F .text	00000020 External_8_IRQHandler
800006dc  w    F .text	00000020 External_9_IRQHandler
8001be10 g       .heap	00000000 __heap_start
800005bc  w    F .text	00000020 Invalid_IRQHandler
8000061c  w    F .text	00000020 External_3_IRQHandler
80002074 g     F .text	000001ec xTaskIncrementTick
80002cfc g     O .sbss	00000004 g_startscheduler
8000081c  w    F .text	00000020 External_19_IRQHandler
80000b70 g     F .text	000000e8 _write
8001be10 g       .bss	00000000 _end
80001460 g     F .text	000000cc vPortSetupTimer
80001dd4 g     F .text	00000084 vTaskDelay
80000d30 g     F .text	00000118 UART_init
80000c60 g       .text	00000000 HW_get_32bit_reg
80000aa8 g     F .text	00000050 _exit
80000ca0 g       .text	00000000 HW_set_16bit_reg
80001b68 g     F .text	00000050 strlen
80001558 g     F .text	00000094 pxPortInitialiseStack
800005dc  w    F .text	00000020 External_1_IRQHandler
8000067c  w    F .text	00000020 External_6_IRQHandler
8000099c  w    F .text	00000020 External_31_IRQHandler
80001320 g     F .text	00000034 vPortEnterCritical
80002bf0 g       .data	00000000 __data_start
8000085c  w    F .text	00000020 External_21_IRQHandler
800004c0 g     F .text	00000030 handle_m_soft_interrupt
80000450 g     F .text	00000070 handle_m_ext_interrupt
80000cd8 g       .text	00000000 HW_get_16bit_reg_field
8000089c  w    F .text	00000020 External_23_IRQHandler
800008bc  w    F .text	00000020 External_24_IRQHandler
8000063c  w    F .text	00000020 External_4_IRQHandler
8000069c  w    F .text	00000020 External_7_IRQHandler
800029ac g     F .text	0000001c vApplicationIdleHook



Disassembly of section .text:

80000000 <_start>:
_start():
/home/arthur/riscv_RV32IM_FreeRTOS/FreeRTOS/Debug/../riscv_hal/entry.S:30

  .section      .text.entry
  .globl _start

_start:
  j handle_reset
80000000:	00c0006f          	j	8000000c <handle_reset>

80000004 <nmi_vector>:
nmi_vector():
/home/arthur/riscv_RV32IM_FreeRTOS/FreeRTOS/Debug/../riscv_hal/entry.S:33

nmi_vector:
  j nmi_vector
80000004:	0000006f          	j	80000004 <nmi_vector>

80000008 <trap_vector>:
trap_vector():
/home/arthur/riscv_RV32IM_FreeRTOS/FreeRTOS/Debug/../riscv_hal/entry.S:36

trap_vector:
  j trap_entry
80000008:	0280006f          	j	80000030 <trap_entry>

8000000c <handle_reset>:
handle_reset():
/home/arthur/riscv_RV32IM_FreeRTOS/FreeRTOS/Debug/../riscv_hal/entry.S:39

handle_reset:
  la t0, trap_entry
8000000c:	00000297          	auipc	t0,0x0
80000010:	02428293          	addi	t0,t0,36 # 80000030 <trap_entry>
/home/arthur/riscv_RV32IM_FreeRTOS/FreeRTOS/Debug/../riscv_hal/entry.S:40
  csrw mtvec, t0
80000014:	30529073          	csrw	mtvec,t0
/home/arthur/riscv_RV32IM_FreeRTOS/FreeRTOS/Debug/../riscv_hal/entry.S:41
  csrwi mstatus, 0
80000018:	30005073          	csrwi	mstatus,0
/home/arthur/riscv_RV32IM_FreeRTOS/FreeRTOS/Debug/../riscv_hal/entry.S:42
  csrwi mie, 0
8000001c:	30405073          	csrwi	mie,0
/home/arthur/riscv_RV32IM_FreeRTOS/FreeRTOS/Debug/../riscv_hal/entry.S:60
  lui t0, 0x0
  fscsr t0
#endif

  # initialize global pointer
  la gp, __global_pointer$
80000020:	00018193          	mv	gp,gp
/home/arthur/riscv_RV32IM_FreeRTOS/FreeRTOS/Debug/../riscv_hal/entry.S:63

  # initialize stack pointer
  la sp, __stack_top
80000024:	0003c117          	auipc	sp,0x3c
80000028:	dec10113          	addi	sp,sp,-532 # 8003be10 <__stack_top>
/home/arthur/riscv_RV32IM_FreeRTOS/FreeRTOS/Debug/../riscv_hal/entry.S:66

  # perform the rest of initialization in C
  j _init
8000002c:	1880006f          	j	800001b4 <_init>

80000030 <trap_entry>:
trap_entry():
/home/arthur/riscv_RV32IM_FreeRTOS/FreeRTOS/Debug/../riscv_hal/entry.S:70


trap_entry:
  addi sp, sp, -32*REGBYTES
80000030:	f8010113          	addi	sp,sp,-128
/home/arthur/riscv_RV32IM_FreeRTOS/FreeRTOS/Debug/../riscv_hal/entry.S:72

  SREG x1, 0 * REGBYTES(sp)
80000034:	00112023          	sw	ra,0(sp)
/home/arthur/riscv_RV32IM_FreeRTOS/FreeRTOS/Debug/../riscv_hal/entry.S:73
  SREG x2, 1 * REGBYTES(sp)
80000038:	00212223          	sw	sp,4(sp)
/home/arthur/riscv_RV32IM_FreeRTOS/FreeRTOS/Debug/../riscv_hal/entry.S:74
  SREG x3, 2 * REGBYTES(sp)
8000003c:	00312423          	sw	gp,8(sp)
/home/arthur/riscv_RV32IM_FreeRTOS/FreeRTOS/Debug/../riscv_hal/entry.S:75
  SREG x4, 3 * REGBYTES(sp)
80000040:	00412623          	sw	tp,12(sp)
/home/arthur/riscv_RV32IM_FreeRTOS/FreeRTOS/Debug/../riscv_hal/entry.S:76
  SREG x5, 4 * REGBYTES(sp)
80000044:	00512823          	sw	t0,16(sp)
/home/arthur/riscv_RV32IM_FreeRTOS/FreeRTOS/Debug/../riscv_hal/entry.S:77
  SREG x6, 5 * REGBYTES(sp)
80000048:	00612a23          	sw	t1,20(sp)
/home/arthur/riscv_RV32IM_FreeRTOS/FreeRTOS/Debug/../riscv_hal/entry.S:78
  SREG x7, 6 * REGBYTES(sp)
8000004c:	00712c23          	sw	t2,24(sp)
/home/arthur/riscv_RV32IM_FreeRTOS/FreeRTOS/Debug/../riscv_hal/entry.S:79
  SREG x8, 7 * REGBYTES(sp)
80000050:	00812e23          	sw	s0,28(sp)
/home/arthur/riscv_RV32IM_FreeRTOS/FreeRTOS/Debug/../riscv_hal/entry.S:80
  SREG x9, 8 * REGBYTES(sp)
80000054:	02912023          	sw	s1,32(sp)
/home/arthur/riscv_RV32IM_FreeRTOS/FreeRTOS/Debug/../riscv_hal/entry.S:81
  SREG x10, 9 * REGBYTES(sp)
80000058:	02a12223          	sw	a0,36(sp)
/home/arthur/riscv_RV32IM_FreeRTOS/FreeRTOS/Debug/../riscv_hal/entry.S:82
  SREG x11, 10 * REGBYTES(sp)
8000005c:	02b12423          	sw	a1,40(sp)
/home/arthur/riscv_RV32IM_FreeRTOS/FreeRTOS/Debug/../riscv_hal/entry.S:83
  SREG x12, 11 * REGBYTES(sp)
80000060:	02c12623          	sw	a2,44(sp)
/home/arthur/riscv_RV32IM_FreeRTOS/FreeRTOS/Debug/../riscv_hal/entry.S:84
  SREG x13, 12 * REGBYTES(sp)
80000064:	02d12823          	sw	a3,48(sp)
/home/arthur/riscv_RV32IM_FreeRTOS/FreeRTOS/Debug/../riscv_hal/entry.S:85
  SREG x14, 13 * REGBYTES(sp)
80000068:	02e12a23          	sw	a4,52(sp)
/home/arthur/riscv_RV32IM_FreeRTOS/FreeRTOS/Debug/../riscv_hal/entry.S:86
  SREG x15, 14 * REGBYTES(sp)
8000006c:	02f12c23          	sw	a5,56(sp)
/home/arthur/riscv_RV32IM_FreeRTOS/FreeRTOS/Debug/../riscv_hal/entry.S:87
  SREG x16, 15 * REGBYTES(sp)
80000070:	03012e23          	sw	a6,60(sp)
/home/arthur/riscv_RV32IM_FreeRTOS/FreeRTOS/Debug/../riscv_hal/entry.S:88
  SREG x17, 16 * REGBYTES(sp)
80000074:	05112023          	sw	a7,64(sp)
/home/arthur/riscv_RV32IM_FreeRTOS/FreeRTOS/Debug/../riscv_hal/entry.S:89
  SREG x18, 17 * REGBYTES(sp)
80000078:	05212223          	sw	s2,68(sp)
/home/arthur/riscv_RV32IM_FreeRTOS/FreeRTOS/Debug/../riscv_hal/entry.S:90
  SREG x19, 18 * REGBYTES(sp)
8000007c:	05312423          	sw	s3,72(sp)
/home/arthur/riscv_RV32IM_FreeRTOS/FreeRTOS/Debug/../riscv_hal/entry.S:91
  SREG x20, 19 * REGBYTES(sp)
80000080:	05412623          	sw	s4,76(sp)
/home/arthur/riscv_RV32IM_FreeRTOS/FreeRTOS/Debug/../riscv_hal/entry.S:92
  SREG x21, 20 * REGBYTES(sp)
80000084:	05512823          	sw	s5,80(sp)
/home/arthur/riscv_RV32IM_FreeRTOS/FreeRTOS/Debug/../riscv_hal/entry.S:93
  SREG x22, 21 * REGBYTES(sp)
80000088:	05612a23          	sw	s6,84(sp)
/home/arthur/riscv_RV32IM_FreeRTOS/FreeRTOS/Debug/../riscv_hal/entry.S:94
  SREG x23, 22 * REGBYTES(sp)
8000008c:	05712c23          	sw	s7,88(sp)
/home/arthur/riscv_RV32IM_FreeRTOS/FreeRTOS/Debug/../riscv_hal/entry.S:95
  SREG x24, 23 * REGBYTES(sp)
80000090:	05812e23          	sw	s8,92(sp)
/home/arthur/riscv_RV32IM_FreeRTOS/FreeRTOS/Debug/../riscv_hal/entry.S:96
  SREG x25, 24 * REGBYTES(sp)
80000094:	07912023          	sw	s9,96(sp)
/home/arthur/riscv_RV32IM_FreeRTOS/FreeRTOS/Debug/../riscv_hal/entry.S:97
  SREG x26, 25 * REGBYTES(sp)
80000098:	07a12223          	sw	s10,100(sp)
/home/arthur/riscv_RV32IM_FreeRTOS/FreeRTOS/Debug/../riscv_hal/entry.S:98
  SREG x27, 26 * REGBYTES(sp)
8000009c:	07b12423          	sw	s11,104(sp)
/home/arthur/riscv_RV32IM_FreeRTOS/FreeRTOS/Debug/../riscv_hal/entry.S:99
  SREG x28, 27 * REGBYTES(sp)
800000a0:	07c12623          	sw	t3,108(sp)
/home/arthur/riscv_RV32IM_FreeRTOS/FreeRTOS/Debug/../riscv_hal/entry.S:100
  SREG x29, 28 * REGBYTES(sp)
800000a4:	07d12823          	sw	t4,112(sp)
/home/arthur/riscv_RV32IM_FreeRTOS/FreeRTOS/Debug/../riscv_hal/entry.S:101
  SREG x30, 29 * REGBYTES(sp)
800000a8:	07e12a23          	sw	t5,116(sp)
/home/arthur/riscv_RV32IM_FreeRTOS/FreeRTOS/Debug/../riscv_hal/entry.S:102
  SREG x31, 30 * REGBYTES(sp)
800000ac:	07f12c23          	sw	t6,120(sp)
/home/arthur/riscv_RV32IM_FreeRTOS/FreeRTOS/Debug/../riscv_hal/entry.S:105


  csrr t0, mepc
800000b0:	341022f3          	csrr	t0,mepc
/home/arthur/riscv_RV32IM_FreeRTOS/FreeRTOS/Debug/../riscv_hal/entry.S:106
  SREG t0, 31 * REGBYTES(sp)
800000b4:	06512e23          	sw	t0,124(sp)
/home/arthur/riscv_RV32IM_FreeRTOS/FreeRTOS/Debug/../riscv_hal/entry.S:108

  csrr a0, mcause
800000b8:	34202573          	csrr	a0,mcause
/home/arthur/riscv_RV32IM_FreeRTOS/FreeRTOS/Debug/../riscv_hal/entry.S:109
  csrr a1, mepc
800000bc:	341025f3          	csrr	a1,mepc
/home/arthur/riscv_RV32IM_FreeRTOS/FreeRTOS/Debug/../riscv_hal/entry.S:110
  mv a2, sp
800000c0:	00010613          	mv	a2,sp
/home/arthur/riscv_RV32IM_FreeRTOS/FreeRTOS/Debug/../riscv_hal/entry.S:111
  jal handle_trap
800000c4:	42c000ef          	jal	ra,800004f0 <handle_trap>
/home/arthur/riscv_RV32IM_FreeRTOS/FreeRTOS/Debug/../riscv_hal/entry.S:112
  csrw mepc, a0
800000c8:	34151073          	csrw	mepc,a0
/home/arthur/riscv_RV32IM_FreeRTOS/FreeRTOS/Debug/../riscv_hal/entry.S:115

  # Remain in M-mode after mret
  li t0, MSTATUS_MPP
800000cc:	000022b7          	lui	t0,0x2
800000d0:	80028293          	addi	t0,t0,-2048 # 1800 <HEAP_SIZE-0xe800>
/home/arthur/riscv_RV32IM_FreeRTOS/FreeRTOS/Debug/../riscv_hal/entry.S:116
  csrs mstatus, t0
800000d4:	3002a073          	csrs	mstatus,t0
/home/arthur/riscv_RV32IM_FreeRTOS/FreeRTOS/Debug/../riscv_hal/entry.S:118

  LREG x1, 0 * REGBYTES(sp)
800000d8:	00012083          	lw	ra,0(sp)
/home/arthur/riscv_RV32IM_FreeRTOS/FreeRTOS/Debug/../riscv_hal/entry.S:119
  LREG x2, 1 * REGBYTES(sp)
800000dc:	00412103          	lw	sp,4(sp)
/home/arthur/riscv_RV32IM_FreeRTOS/FreeRTOS/Debug/../riscv_hal/entry.S:120
  LREG x3, 2 * REGBYTES(sp)
800000e0:	00812183          	lw	gp,8(sp)
/home/arthur/riscv_RV32IM_FreeRTOS/FreeRTOS/Debug/../riscv_hal/entry.S:121
  LREG x4, 3 * REGBYTES(sp)
800000e4:	00c12203          	lw	tp,12(sp)
/home/arthur/riscv_RV32IM_FreeRTOS/FreeRTOS/Debug/../riscv_hal/entry.S:122
  LREG x5, 4 * REGBYTES(sp)
800000e8:	01012283          	lw	t0,16(sp)
/home/arthur/riscv_RV32IM_FreeRTOS/FreeRTOS/Debug/../riscv_hal/entry.S:123
  LREG x6, 5 * REGBYTES(sp)
800000ec:	01412303          	lw	t1,20(sp)
/home/arthur/riscv_RV32IM_FreeRTOS/FreeRTOS/Debug/../riscv_hal/entry.S:124
  LREG x7, 6 * REGBYTES(sp)
800000f0:	01812383          	lw	t2,24(sp)
/home/arthur/riscv_RV32IM_FreeRTOS/FreeRTOS/Debug/../riscv_hal/entry.S:125
  LREG x8, 7 * REGBYTES(sp)
800000f4:	01c12403          	lw	s0,28(sp)
/home/arthur/riscv_RV32IM_FreeRTOS/FreeRTOS/Debug/../riscv_hal/entry.S:126
  LREG x9, 8 * REGBYTES(sp)
800000f8:	02012483          	lw	s1,32(sp)
/home/arthur/riscv_RV32IM_FreeRTOS/FreeRTOS/Debug/../riscv_hal/entry.S:127
  LREG x10, 9 * REGBYTES(sp)
800000fc:	02412503          	lw	a0,36(sp)
/home/arthur/riscv_RV32IM_FreeRTOS/FreeRTOS/Debug/../riscv_hal/entry.S:128
  LREG x11, 10 * REGBYTES(sp)
80000100:	02812583          	lw	a1,40(sp)
/home/arthur/riscv_RV32IM_FreeRTOS/FreeRTOS/Debug/../riscv_hal/entry.S:129
  LREG x12, 11 * REGBYTES(sp)
80000104:	02c12603          	lw	a2,44(sp)
/home/arthur/riscv_RV32IM_FreeRTOS/FreeRTOS/Debug/../riscv_hal/entry.S:130
  LREG x13, 12 * REGBYTES(sp)
80000108:	03012683          	lw	a3,48(sp)
/home/arthur/riscv_RV32IM_FreeRTOS/FreeRTOS/Debug/../riscv_hal/entry.S:131
  LREG x14, 13 * REGBYTES(sp)
8000010c:	03412703          	lw	a4,52(sp)
/home/arthur/riscv_RV32IM_FreeRTOS/FreeRTOS/Debug/../riscv_hal/entry.S:132
  LREG x15, 14 * REGBYTES(sp)
80000110:	03812783          	lw	a5,56(sp)
/home/arthur/riscv_RV32IM_FreeRTOS/FreeRTOS/Debug/../riscv_hal/entry.S:133
  LREG x16, 15 * REGBYTES(sp)
80000114:	03c12803          	lw	a6,60(sp)
/home/arthur/riscv_RV32IM_FreeRTOS/FreeRTOS/Debug/../riscv_hal/entry.S:134
  LREG x17, 16 * REGBYTES(sp)
80000118:	04012883          	lw	a7,64(sp)
/home/arthur/riscv_RV32IM_FreeRTOS/FreeRTOS/Debug/../riscv_hal/entry.S:135
  LREG x18, 17 * REGBYTES(sp)
8000011c:	04412903          	lw	s2,68(sp)
/home/arthur/riscv_RV32IM_FreeRTOS/FreeRTOS/Debug/../riscv_hal/entry.S:136
  LREG x19, 18 * REGBYTES(sp)
80000120:	04812983          	lw	s3,72(sp)
/home/arthur/riscv_RV32IM_FreeRTOS/FreeRTOS/Debug/../riscv_hal/entry.S:137
  LREG x20, 19 * REGBYTES(sp)
80000124:	04c12a03          	lw	s4,76(sp)
/home/arthur/riscv_RV32IM_FreeRTOS/FreeRTOS/Debug/../riscv_hal/entry.S:138
  LREG x21, 20 * REGBYTES(sp)
80000128:	05012a83          	lw	s5,80(sp)
/home/arthur/riscv_RV32IM_FreeRTOS/FreeRTOS/Debug/../riscv_hal/entry.S:139
  LREG x22, 21 * REGBYTES(sp)
8000012c:	05412b03          	lw	s6,84(sp)
/home/arthur/riscv_RV32IM_FreeRTOS/FreeRTOS/Debug/../riscv_hal/entry.S:140
  LREG x23, 22 * REGBYTES(sp)
80000130:	05812b83          	lw	s7,88(sp)
/home/arthur/riscv_RV32IM_FreeRTOS/FreeRTOS/Debug/../riscv_hal/entry.S:141
  LREG x24, 23 * REGBYTES(sp)
80000134:	05c12c03          	lw	s8,92(sp)
/home/arthur/riscv_RV32IM_FreeRTOS/FreeRTOS/Debug/../riscv_hal/entry.S:142
  LREG x25, 24 * REGBYTES(sp)
80000138:	06012c83          	lw	s9,96(sp)
/home/arthur/riscv_RV32IM_FreeRTOS/FreeRTOS/Debug/../riscv_hal/entry.S:143
  LREG x26, 25 * REGBYTES(sp)
8000013c:	06412d03          	lw	s10,100(sp)
/home/arthur/riscv_RV32IM_FreeRTOS/FreeRTOS/Debug/../riscv_hal/entry.S:144
  LREG x27, 26 * REGBYTES(sp)
80000140:	06812d83          	lw	s11,104(sp)
/home/arthur/riscv_RV32IM_FreeRTOS/FreeRTOS/Debug/../riscv_hal/entry.S:145
  LREG x28, 27 * REGBYTES(sp)
80000144:	06c12e03          	lw	t3,108(sp)
/home/arthur/riscv_RV32IM_FreeRTOS/FreeRTOS/Debug/../riscv_hal/entry.S:146
  LREG x29, 28 * REGBYTES(sp)
80000148:	07012e83          	lw	t4,112(sp)
/home/arthur/riscv_RV32IM_FreeRTOS/FreeRTOS/Debug/../riscv_hal/entry.S:147
  LREG x30, 29 * REGBYTES(sp)
8000014c:	07412f03          	lw	t5,116(sp)
/home/arthur/riscv_RV32IM_FreeRTOS/FreeRTOS/Debug/../riscv_hal/entry.S:148
  LREG x31, 30 * REGBYTES(sp)
80000150:	07812f83          	lw	t6,120(sp)
/home/arthur/riscv_RV32IM_FreeRTOS/FreeRTOS/Debug/../riscv_hal/entry.S:150

  addi sp, sp, 32*REGBYTES
80000154:	08010113          	addi	sp,sp,128
/home/arthur/riscv_RV32IM_FreeRTOS/FreeRTOS/Debug/../riscv_hal/entry.S:151
  mret
80000158:	30200073          	mret
8000015c:	0000                	unimp
	...

80000160 <zero_section>:
zero_section():
/home/arthur/riscv_RV32IM_FreeRTOS/FreeRTOS/Debug/../riscv_hal/init.c:47
        ++p_vma;
    }
}

static void zero_section(uint32_t * start, uint32_t * end)
{
80000160:	fd010113          	addi	sp,sp,-48
80000164:	02812623          	sw	s0,44(sp)
80000168:	03010413          	addi	s0,sp,48
8000016c:	fca42e23          	sw	a0,-36(s0)
80000170:	fcb42c23          	sw	a1,-40(s0)
/home/arthur/riscv_RV32IM_FreeRTOS/FreeRTOS/Debug/../riscv_hal/init.c:48
    uint32_t * p_zero = start;
80000174:	fdc42783          	lw	a5,-36(s0)
80000178:	fef42623          	sw	a5,-20(s0)
/home/arthur/riscv_RV32IM_FreeRTOS/FreeRTOS/Debug/../riscv_hal/init.c:50
    
    while(p_zero <= end)
8000017c:	0180006f          	j	80000194 <zero_section+0x34>
/home/arthur/riscv_RV32IM_FreeRTOS/FreeRTOS/Debug/../riscv_hal/init.c:52
    {
        *p_zero = 0;
80000180:	fec42783          	lw	a5,-20(s0)
80000184:	0007a023          	sw	zero,0(a5)
/home/arthur/riscv_RV32IM_FreeRTOS/FreeRTOS/Debug/../riscv_hal/init.c:53
        ++p_zero;
80000188:	fec42783          	lw	a5,-20(s0)
8000018c:	00478793          	addi	a5,a5,4
80000190:	fef42623          	sw	a5,-20(s0)
/home/arthur/riscv_RV32IM_FreeRTOS/FreeRTOS/Debug/../riscv_hal/init.c:50
    while(p_zero <= end)
80000194:	fec42703          	lw	a4,-20(s0)
80000198:	fd842783          	lw	a5,-40(s0)
8000019c:	fee7f2e3          	bgeu	a5,a4,80000180 <zero_section+0x20>
/home/arthur/riscv_RV32IM_FreeRTOS/FreeRTOS/Debug/../riscv_hal/init.c:55
    }
}
800001a0:	00000013          	nop
800001a4:	00000013          	nop
800001a8:	02c12403          	lw	s0,44(sp)
800001ac:	03010113          	addi	sp,sp,48
800001b0:	00008067          	ret

800001b4 <_init>:
_init():
/home/arthur/riscv_RV32IM_FreeRTOS/FreeRTOS/Debug/../riscv_hal/init.c:58

void _init(void)
{
800001b4:	fe010113          	addi	sp,sp,-32
800001b8:	00112e23          	sw	ra,28(sp)
800001bc:	00812c23          	sw	s0,24(sp)
800001c0:	02010413          	addi	s0,sp,32
/home/arthur/riscv_RV32IM_FreeRTOS/FreeRTOS/Debug/../riscv_hal/init.c:60
    extern int main(int, char**);
    const char *argv0 = "hello";
800001c4:	800037b7          	lui	a5,0x80003
800001c8:	ab078793          	addi	a5,a5,-1360 # 80002ab0 <__stack_top+0xfffc6ca0>
800001cc:	fef42623          	sw	a5,-20(s0)
/home/arthur/riscv_RV32IM_FreeRTOS/FreeRTOS/Debug/../riscv_hal/init.c:61
    char *argv[] = {(char *)argv0, NULL, NULL};
800001d0:	fec42783          	lw	a5,-20(s0)
800001d4:	fef42023          	sw	a5,-32(s0)
800001d8:	fe042223          	sw	zero,-28(s0)
800001dc:	fe042423          	sw	zero,-24(s0)
/home/arthur/riscv_RV32IM_FreeRTOS/FreeRTOS/Debug/../riscv_hal/init.c:66

// Imperas - this is loaded directly by simulator so must not be copied
//    copy_section(&__sdata_load, &__sdata_start, &__sdata_end);
//    copy_section(&__data_load, &__data_start, &__data_end);
    zero_section(&__sbss_start, &__sbss_end);
800001e0:	97018593          	addi	a1,gp,-1680 # 80002d40 <ucHeap>
800001e4:	90018513          	addi	a0,gp,-1792 # 80002cd0 <g_systick_increment>
800001e8:	f79ff0ef          	jal	ra,80000160 <zero_section>
/home/arthur/riscv_RV32IM_FreeRTOS/FreeRTOS/Debug/../riscv_hal/init.c:67
    zero_section(&__bss_start, &__bss_end);
800001ec:	8001c7b7          	lui	a5,0x8001c
800001f0:	e1078593          	addi	a1,a5,-496 # 8001be10 <__stack_top+0xfffe0000>
800001f4:	97018513          	addi	a0,gp,-1680 # 80002d40 <ucHeap>
800001f8:	f69ff0ef          	jal	ra,80000160 <zero_section>
/home/arthur/riscv_RV32IM_FreeRTOS/FreeRTOS/Debug/../riscv_hal/init.c:69
    
    main(1, argv);
800001fc:	fe040793          	addi	a5,s0,-32
80000200:	00078593          	mv	a1,a5
80000204:	00100513          	li	a0,1
80000208:	6d4020ef          	jal	ra,800028dc <main>
/home/arthur/riscv_RV32IM_FreeRTOS/FreeRTOS/Debug/../riscv_hal/init.c:70
}
8000020c:	00000013          	nop
80000210:	01c12083          	lw	ra,28(sp)
80000214:	01812403          	lw	s0,24(sp)
80000218:	02010113          	addi	sp,sp,32
8000021c:	00008067          	ret

80000220 <_fini>:
_fini():
/home/arthur/riscv_RV32IM_FreeRTOS/FreeRTOS/Debug/../riscv_hal/init.c:75

/* Function called after main() finishes */
void
_fini()
{
80000220:	ff010113          	addi	sp,sp,-16
80000224:	00812623          	sw	s0,12(sp)
80000228:	01010413          	addi	s0,sp,16
/home/arthur/riscv_RV32IM_FreeRTOS/FreeRTOS/Debug/../riscv_hal/init.c:76
}
8000022c:	00000013          	nop
80000230:	00c12403          	lw	s0,12(sp)
80000234:	01010113          	addi	sp,sp,16
80000238:	00008067          	ret

8000023c <PLIC_DisableIRQ>:
PLIC_DisableIRQ():
/home/arthur/riscv_RV32IM_FreeRTOS/FreeRTOS/Debug/../riscv_hal/riscv_plic.h:174
 * 	If you wish to disable the external interrupt while the interrupt handler
 * 	for that external interrupt is executing then you must use the return value
 * 	EXT_IRQ_DISABLE to return from the extern interrupt handler.
 */
static inline void PLIC_DisableIRQ(IRQn_Type IRQn)
{
8000023c:	fd010113          	addi	sp,sp,-48
80000240:	02812623          	sw	s0,44(sp)
80000244:	03010413          	addi	s0,sp,48
80000248:	fca42e23          	sw	a0,-36(s0)
/home/arthur/riscv_RV32IM_FreeRTOS/FreeRTOS/Debug/../riscv_hal/riscv_plic.h:175
    unsigned long hart_id = read_csr(mhartid);
8000024c:	f14027f3          	csrr	a5,mhartid
80000250:	fef42623          	sw	a5,-20(s0)
80000254:	fec42783          	lw	a5,-20(s0)
80000258:	fef42423          	sw	a5,-24(s0)
/home/arthur/riscv_RV32IM_FreeRTOS/FreeRTOS/Debug/../riscv_hal/riscv_plic.h:176
    uint32_t current = PLIC->TARGET_ENABLES[hart_id].ENABLES[IRQn / 32];
8000025c:	40000737          	lui	a4,0x40000
80000260:	fdc42783          	lw	a5,-36(s0)
80000264:	0057d793          	srli	a5,a5,0x5
80000268:	fe842683          	lw	a3,-24(s0)
8000026c:	00569693          	slli	a3,a3,0x5
80000270:	00f686b3          	add	a3,a3,a5
80000274:	000017b7          	lui	a5,0x1
80000278:	80078793          	addi	a5,a5,-2048 # 800 <HEAP_SIZE-0xf800>
8000027c:	00f687b3          	add	a5,a3,a5
80000280:	00279793          	slli	a5,a5,0x2
80000284:	00f707b3          	add	a5,a4,a5
80000288:	0007a783          	lw	a5,0(a5)
8000028c:	fef42223          	sw	a5,-28(s0)
/home/arthur/riscv_RV32IM_FreeRTOS/FreeRTOS/Debug/../riscv_hal/riscv_plic.h:178

    current &= ~((uint32_t)1 << (IRQn % 32));
80000290:	fdc42783          	lw	a5,-36(s0)
80000294:	01f7f793          	andi	a5,a5,31
80000298:	00100713          	li	a4,1
8000029c:	00f717b3          	sll	a5,a4,a5
800002a0:	fff7c793          	not	a5,a5
800002a4:	fe442703          	lw	a4,-28(s0)
800002a8:	00f777b3          	and	a5,a4,a5
800002ac:	fef42223          	sw	a5,-28(s0)
/home/arthur/riscv_RV32IM_FreeRTOS/FreeRTOS/Debug/../riscv_hal/riscv_plic.h:180

    PLIC->TARGET_ENABLES[hart_id].ENABLES[IRQn / 32] = current;
800002b0:	40000737          	lui	a4,0x40000
800002b4:	fdc42783          	lw	a5,-36(s0)
800002b8:	0057d793          	srli	a5,a5,0x5
800002bc:	fe842683          	lw	a3,-24(s0)
800002c0:	00569693          	slli	a3,a3,0x5
800002c4:	00f686b3          	add	a3,a3,a5
800002c8:	000017b7          	lui	a5,0x1
800002cc:	80078793          	addi	a5,a5,-2048 # 800 <HEAP_SIZE-0xf800>
800002d0:	00f687b3          	add	a5,a3,a5
800002d4:	00279793          	slli	a5,a5,0x2
800002d8:	00f707b3          	add	a5,a4,a5
800002dc:	fe442703          	lw	a4,-28(s0)
800002e0:	00e7a023          	sw	a4,0(a5)
/home/arthur/riscv_RV32IM_FreeRTOS/FreeRTOS/Debug/../riscv_hal/riscv_plic.h:181
}
800002e4:	00000013          	nop
800002e8:	02c12403          	lw	s0,44(sp)
800002ec:	03010113          	addi	sp,sp,48
800002f0:	00008067          	ret

800002f4 <PLIC_ClaimIRQ>:
PLIC_ClaimIRQ():
/home/arthur/riscv_RV32IM_FreeRTOS/FreeRTOS/Debug/../riscv_hal/riscv_plic.h:205

/*==============================================================================
 * The function PLIC_ClaimIRQ() claims the interrupt from the PLIC controller.
 */
static inline uint32_t PLIC_ClaimIRQ(void)
{
800002f4:	fe010113          	addi	sp,sp,-32
800002f8:	00812e23          	sw	s0,28(sp)
800002fc:	02010413          	addi	s0,sp,32
/home/arthur/riscv_RV32IM_FreeRTOS/FreeRTOS/Debug/../riscv_hal/riscv_plic.h:206
    unsigned long hart_id = read_csr(mhartid);
80000300:	f14027f3          	csrr	a5,mhartid
80000304:	fef42623          	sw	a5,-20(s0)
80000308:	fec42783          	lw	a5,-20(s0)
8000030c:	fef42423          	sw	a5,-24(s0)
/home/arthur/riscv_RV32IM_FreeRTOS/FreeRTOS/Debug/../riscv_hal/riscv_plic.h:208

    return PLIC->TARGET[hart_id].CLAIM_COMPLETE;
80000310:	40000737          	lui	a4,0x40000
80000314:	fe842783          	lw	a5,-24(s0)
80000318:	20078793          	addi	a5,a5,512
8000031c:	00c79793          	slli	a5,a5,0xc
80000320:	00f707b3          	add	a5,a4,a5
80000324:	0047a783          	lw	a5,4(a5)
/home/arthur/riscv_RV32IM_FreeRTOS/FreeRTOS/Debug/../riscv_hal/riscv_plic.h:209
}
80000328:	00078513          	mv	a0,a5
8000032c:	01c12403          	lw	s0,28(sp)
80000330:	02010113          	addi	sp,sp,32
80000334:	00008067          	ret

80000338 <PLIC_CompleteIRQ>:
PLIC_CompleteIRQ():
/home/arthur/riscv_RV32IM_FreeRTOS/FreeRTOS/Debug/../riscv_hal/riscv_plic.h:216
/*==============================================================================
 * The function PLIC_CompleteIRQ() indicates to the PLIC controller the interrupt
 * is processed and claim is complete.
 */
static inline void PLIC_CompleteIRQ(uint32_t source)
{
80000338:	fd010113          	addi	sp,sp,-48
8000033c:	02812623          	sw	s0,44(sp)
80000340:	03010413          	addi	s0,sp,48
80000344:	fca42e23          	sw	a0,-36(s0)
/home/arthur/riscv_RV32IM_FreeRTOS/FreeRTOS/Debug/../riscv_hal/riscv_plic.h:217
    unsigned long hart_id = read_csr(mhartid);
80000348:	f14027f3          	csrr	a5,mhartid
8000034c:	fef42623          	sw	a5,-20(s0)
80000350:	fec42783          	lw	a5,-20(s0)
80000354:	fef42423          	sw	a5,-24(s0)
/home/arthur/riscv_RV32IM_FreeRTOS/FreeRTOS/Debug/../riscv_hal/riscv_plic.h:219

    PLIC->TARGET[hart_id].CLAIM_COMPLETE = source;
80000358:	40000737          	lui	a4,0x40000
8000035c:	fe842783          	lw	a5,-24(s0)
80000360:	20078793          	addi	a5,a5,512
80000364:	00c79793          	slli	a5,a5,0xc
80000368:	00f707b3          	add	a5,a4,a5
8000036c:	fdc42703          	lw	a4,-36(s0)
80000370:	00e7a223          	sw	a4,4(a5)
/home/arthur/riscv_RV32IM_FreeRTOS/FreeRTOS/Debug/../riscv_hal/riscv_plic.h:220
}
80000374:	00000013          	nop
80000378:	02c12403          	lw	s0,44(sp)
8000037c:	03010113          	addi	sp,sp,48
80000380:	00008067          	ret

80000384 <__enable_irq>:
__enable_irq():
/home/arthur/riscv_RV32IM_FreeRTOS/FreeRTOS/Debug/../riscv_hal/riscv_hal.c:88

/*------------------------------------------------------------------------------
 * Enabler all interrupts.
 */
void __enable_irq(void)
{
80000384:	fe010113          	addi	sp,sp,-32
80000388:	00812e23          	sw	s0,28(sp)
8000038c:	02010413          	addi	s0,sp,32
/home/arthur/riscv_RV32IM_FreeRTOS/FreeRTOS/Debug/../riscv_hal/riscv_hal.c:89
    set_csr(mstatus, MSTATUS_MIE);
80000390:	300467f3          	csrrsi	a5,mstatus,8
80000394:	fef42623          	sw	a5,-20(s0)
/home/arthur/riscv_RV32IM_FreeRTOS/FreeRTOS/Debug/../riscv_hal/riscv_hal.c:90
}
80000398:	00000013          	nop
8000039c:	01c12403          	lw	s0,28(sp)
800003a0:	02010113          	addi	sp,sp,32
800003a4:	00008067          	ret

800003a8 <handle_m_timer_interrupt>:
handle_m_timer_interrupt():
/home/arthur/riscv_RV32IM_FreeRTOS/FreeRTOS/Debug/../riscv_hal/riscv_hal.c:120

/*------------------------------------------------------------------------------
 * RISC-V interrupt handler for machine timer interrupts.
 */
void handle_m_timer_interrupt()
{
800003a8:	fe010113          	addi	sp,sp,-32
800003ac:	00112e23          	sw	ra,28(sp)
800003b0:	00812c23          	sw	s0,24(sp)
800003b4:	02010413          	addi	s0,sp,32
/home/arthur/riscv_RV32IM_FreeRTOS/FreeRTOS/Debug/../riscv_hal/riscv_hal.c:121
    clear_csr(mie, MIP_MTIP);
800003b8:	08000793          	li	a5,128
800003bc:	3047b7f3          	csrrc	a5,mie,a5
800003c0:	fef42623          	sw	a5,-20(s0)
/home/arthur/riscv_RV32IM_FreeRTOS/FreeRTOS/Debug/../riscv_hal/riscv_hal.c:123

    SysTick_Handler();
800003c4:	228010ef          	jal	ra,800015ec <SysTick_Handler>
/home/arthur/riscv_RV32IM_FreeRTOS/FreeRTOS/Debug/../riscv_hal/riscv_hal.c:125

    PRCI->MTIMECMP[read_csr(mhartid)] = PRCI->MTIME + g_systick_increment;
800003c8:	44000737          	lui	a4,0x44000
800003cc:	0000c7b7          	lui	a5,0xc
800003d0:	00f707b3          	add	a5,a4,a5
800003d4:	ff87a703          	lw	a4,-8(a5) # bff8 <HEAP_SIZE-0x4008>
800003d8:	ffc7a783          	lw	a5,-4(a5)
800003dc:	9001a503          	lw	a0,-1792(gp) # 80002cd0 <g_systick_increment>
800003e0:	9041a583          	lw	a1,-1788(gp) # 80002cd4 <g_systick_increment+0x4>
800003e4:	44000837          	lui	a6,0x44000
800003e8:	f14026f3          	csrr	a3,mhartid
800003ec:	fed42423          	sw	a3,-24(s0)
800003f0:	fe842883          	lw	a7,-24(s0)
800003f4:	00a70633          	add	a2,a4,a0
800003f8:	00060313          	mv	t1,a2
800003fc:	00e33333          	sltu	t1,t1,a4
80000400:	00b786b3          	add	a3,a5,a1
80000404:	00d307b3          	add	a5,t1,a3
80000408:	00078693          	mv	a3,a5
8000040c:	00060713          	mv	a4,a2
80000410:	00068793          	mv	a5,a3
80000414:	000016b7          	lui	a3,0x1
80000418:	80068693          	addi	a3,a3,-2048 # 800 <HEAP_SIZE-0xf800>
8000041c:	00d886b3          	add	a3,a7,a3
80000420:	00369693          	slli	a3,a3,0x3
80000424:	00d806b3          	add	a3,a6,a3
80000428:	00e6a023          	sw	a4,0(a3)
8000042c:	00f6a223          	sw	a5,4(a3)
/home/arthur/riscv_RV32IM_FreeRTOS/FreeRTOS/Debug/../riscv_hal/riscv_hal.c:127

    set_csr(mie, MIP_MTIP);
80000430:	08000793          	li	a5,128
80000434:	3047a7f3          	csrrs	a5,mie,a5
80000438:	fef42223          	sw	a5,-28(s0)
/home/arthur/riscv_RV32IM_FreeRTOS/FreeRTOS/Debug/../riscv_hal/riscv_hal.c:128
}
8000043c:	00000013          	nop
80000440:	01c12083          	lw	ra,28(sp)
80000444:	01812403          	lw	s0,24(sp)
80000448:	02010113          	addi	sp,sp,32
8000044c:	00008067          	ret

80000450 <handle_m_ext_interrupt>:
handle_m_ext_interrupt():
/home/arthur/riscv_RV32IM_FreeRTOS/FreeRTOS/Debug/../riscv_hal/riscv_hal.c:173

/*------------------------------------------------------------------------------
 * 
 */
void handle_m_ext_interrupt()
{
80000450:	fe010113          	addi	sp,sp,-32
80000454:	00112e23          	sw	ra,28(sp)
80000458:	00812c23          	sw	s0,24(sp)
8000045c:	02010413          	addi	s0,sp,32
/home/arthur/riscv_RV32IM_FreeRTOS/FreeRTOS/Debug/../riscv_hal/riscv_hal.c:174
    uint32_t int_num  = PLIC_ClaimIRQ();
80000460:	e95ff0ef          	jal	ra,800002f4 <PLIC_ClaimIRQ>
80000464:	fea42623          	sw	a0,-20(s0)
/home/arthur/riscv_RV32IM_FreeRTOS/FreeRTOS/Debug/../riscv_hal/riscv_hal.c:175
    uint8_t disable = EXT_IRQ_KEEP_ENABLED;
80000468:	fe0405a3          	sb	zero,-21(s0)
/home/arthur/riscv_RV32IM_FreeRTOS/FreeRTOS/Debug/../riscv_hal/riscv_hal.c:177

    disable = ext_irq_handler_table[int_num]();
8000046c:	800037b7          	lui	a5,0x80003
80000470:	bf078713          	addi	a4,a5,-1040 # 80002bf0 <__stack_top+0xfffc6de0>
80000474:	fec42783          	lw	a5,-20(s0)
80000478:	00279793          	slli	a5,a5,0x2
8000047c:	00f707b3          	add	a5,a4,a5
80000480:	0007a783          	lw	a5,0(a5)
80000484:	000780e7          	jalr	a5
80000488:	00050793          	mv	a5,a0
8000048c:	fef405a3          	sb	a5,-21(s0)
/home/arthur/riscv_RV32IM_FreeRTOS/FreeRTOS/Debug/../riscv_hal/riscv_hal.c:179

    PLIC_CompleteIRQ(int_num);
80000490:	fec42503          	lw	a0,-20(s0)
80000494:	ea5ff0ef          	jal	ra,80000338 <PLIC_CompleteIRQ>
/home/arthur/riscv_RV32IM_FreeRTOS/FreeRTOS/Debug/../riscv_hal/riscv_hal.c:181

    if(EXT_IRQ_DISABLE == disable)
80000498:	feb44703          	lbu	a4,-21(s0)
8000049c:	00100793          	li	a5,1
800004a0:	00f71663          	bne	a4,a5,800004ac <handle_m_ext_interrupt+0x5c>
/home/arthur/riscv_RV32IM_FreeRTOS/FreeRTOS/Debug/../riscv_hal/riscv_hal.c:183
    {
        PLIC_DisableIRQ((IRQn_Type)int_num);
800004a4:	fec42503          	lw	a0,-20(s0)
800004a8:	d95ff0ef          	jal	ra,8000023c <PLIC_DisableIRQ>
/home/arthur/riscv_RV32IM_FreeRTOS/FreeRTOS/Debug/../riscv_hal/riscv_hal.c:185
    }
}
800004ac:	00000013          	nop
800004b0:	01c12083          	lw	ra,28(sp)
800004b4:	01812403          	lw	s0,24(sp)
800004b8:	02010113          	addi	sp,sp,32
800004bc:	00008067          	ret

800004c0 <handle_m_soft_interrupt>:
handle_m_soft_interrupt():
/home/arthur/riscv_RV32IM_FreeRTOS/FreeRTOS/Debug/../riscv_hal/riscv_hal.c:188

void handle_m_soft_interrupt()
{
800004c0:	ff010113          	addi	sp,sp,-16
800004c4:	00112623          	sw	ra,12(sp)
800004c8:	00812423          	sw	s0,8(sp)
800004cc:	01010413          	addi	s0,sp,16
/home/arthur/riscv_RV32IM_FreeRTOS/FreeRTOS/Debug/../riscv_hal/riscv_hal.c:189
    Software_IRQHandler();
800004d0:	22c010ef          	jal	ra,800016fc <Software_IRQHandler>
/home/arthur/riscv_RV32IM_FreeRTOS/FreeRTOS/Debug/../riscv_hal/riscv_hal.c:192

    /*Clear software interrupt*/
    PRCI->MSIP[0] = 0x00;
800004d4:	440007b7          	lui	a5,0x44000
800004d8:	0007a023          	sw	zero,0(a5) # 44000000 <RAM_SIZE+0x43f80000>
/home/arthur/riscv_RV32IM_FreeRTOS/FreeRTOS/Debug/../riscv_hal/riscv_hal.c:193
}
800004dc:	00000013          	nop
800004e0:	00c12083          	lw	ra,12(sp)
800004e4:	00812403          	lw	s0,8(sp)
800004e8:	01010113          	addi	sp,sp,16
800004ec:	00008067          	ret

800004f0 <handle_trap>:
handle_trap():
/home/arthur/riscv_RV32IM_FreeRTOS/FreeRTOS/Debug/../riscv_hal/riscv_hal.c:198
/*------------------------------------------------------------------------------
 * Trap/Interrupt handler
 */
uintptr_t handle_trap(uintptr_t mcause, uintptr_t epc)
{
800004f0:	fe010113          	addi	sp,sp,-32
800004f4:	00112e23          	sw	ra,28(sp)
800004f8:	00812c23          	sw	s0,24(sp)
800004fc:	02010413          	addi	s0,sp,32
80000500:	fea42623          	sw	a0,-20(s0)
80000504:	feb42423          	sw	a1,-24(s0)
/home/arthur/riscv_RV32IM_FreeRTOS/FreeRTOS/Debug/../riscv_hal/riscv_hal.c:199
    if ((mcause & MCAUSE_INT) && ((mcause & MCAUSE_CAUSE)  == IRQ_M_EXT))
80000508:	fec42783          	lw	a5,-20(s0)
8000050c:	0207d263          	bgez	a5,80000530 <handle_trap+0x40>
/home/arthur/riscv_RV32IM_FreeRTOS/FreeRTOS/Debug/../riscv_hal/riscv_hal.c:199 (discriminator 1)
80000510:	fec42703          	lw	a4,-20(s0)
80000514:	800007b7          	lui	a5,0x80000
80000518:	fff7c793          	not	a5,a5
8000051c:	00f77733          	and	a4,a4,a5
80000520:	00b00793          	li	a5,11
80000524:	00f71663          	bne	a4,a5,80000530 <handle_trap+0x40>
/home/arthur/riscv_RV32IM_FreeRTOS/FreeRTOS/Debug/../riscv_hal/riscv_hal.c:201
    {
        handle_m_ext_interrupt();
80000528:	f29ff0ef          	jal	ra,80000450 <handle_m_ext_interrupt>
8000052c:	0780006f          	j	800005a4 <handle_trap+0xb4>
/home/arthur/riscv_RV32IM_FreeRTOS/FreeRTOS/Debug/../riscv_hal/riscv_hal.c:203
    }
    else if ((mcause & MCAUSE_INT) && ((mcause & MCAUSE_CAUSE)  == IRQ_M_TIMER))
80000530:	fec42783          	lw	a5,-20(s0)
80000534:	0207d263          	bgez	a5,80000558 <handle_trap+0x68>
/home/arthur/riscv_RV32IM_FreeRTOS/FreeRTOS/Debug/../riscv_hal/riscv_hal.c:203 (discriminator 1)
80000538:	fec42703          	lw	a4,-20(s0)
8000053c:	800007b7          	lui	a5,0x80000
80000540:	fff7c793          	not	a5,a5
80000544:	00f77733          	and	a4,a4,a5
80000548:	00700793          	li	a5,7
8000054c:	00f71663          	bne	a4,a5,80000558 <handle_trap+0x68>
/home/arthur/riscv_RV32IM_FreeRTOS/FreeRTOS/Debug/../riscv_hal/riscv_hal.c:205
    {
        handle_m_timer_interrupt();
80000550:	e59ff0ef          	jal	ra,800003a8 <handle_m_timer_interrupt>
80000554:	0500006f          	j	800005a4 <handle_trap+0xb4>
/home/arthur/riscv_RV32IM_FreeRTOS/FreeRTOS/Debug/../riscv_hal/riscv_hal.c:207
    }
    else if ((mcause & MCAUSE_INT) && ((mcause & MCAUSE_CAUSE)  == IRQ_M_SOFT))
80000558:	fec42783          	lw	a5,-20(s0)
8000055c:	0207d263          	bgez	a5,80000580 <handle_trap+0x90>
/home/arthur/riscv_RV32IM_FreeRTOS/FreeRTOS/Debug/../riscv_hal/riscv_hal.c:207 (discriminator 1)
80000560:	fec42703          	lw	a4,-20(s0)
80000564:	800007b7          	lui	a5,0x80000
80000568:	fff7c793          	not	a5,a5
8000056c:	00f77733          	and	a4,a4,a5
80000570:	00300793          	li	a5,3
80000574:	00f71663          	bne	a4,a5,80000580 <handle_trap+0x90>
/home/arthur/riscv_RV32IM_FreeRTOS/FreeRTOS/Debug/../riscv_hal/riscv_hal.c:209
    {
        handle_m_soft_interrupt();
80000578:	f49ff0ef          	jal	ra,800004c0 <handle_m_soft_interrupt>
8000057c:	0280006f          	j	800005a4 <handle_trap+0xb4>
/home/arthur/riscv_RV32IM_FreeRTOS/FreeRTOS/Debug/../riscv_hal/riscv_hal.c:213
    }
    else
    {
        write(1, "trap\n", 5);
80000580:	00500613          	li	a2,5
80000584:	800037b7          	lui	a5,0x80003
80000588:	ab878593          	addi	a1,a5,-1352 # 80002ab8 <__stack_top+0xfffc6ca8>
8000058c:	00100513          	li	a0,1
80000590:	4c0020ef          	jal	ra,80002a50 <write>
/home/arthur/riscv_RV32IM_FreeRTOS/FreeRTOS/Debug/../riscv_hal/riscv_hal.c:214
        _exit(1 + mcause);
80000594:	fec42783          	lw	a5,-20(s0)
80000598:	00178793          	addi	a5,a5,1
8000059c:	00078513          	mv	a0,a5
800005a0:	508000ef          	jal	ra,80000aa8 <_exit>
/home/arthur/riscv_RV32IM_FreeRTOS/FreeRTOS/Debug/../riscv_hal/riscv_hal.c:216
    }
    return epc;
800005a4:	fe842783          	lw	a5,-24(s0)
/home/arthur/riscv_RV32IM_FreeRTOS/FreeRTOS/Debug/../riscv_hal/riscv_hal.c:217
}
800005a8:	00078513          	mv	a0,a5
800005ac:	01c12083          	lw	ra,28(sp)
800005b0:	01812403          	lw	s0,24(sp)
800005b4:	02010113          	addi	sp,sp,32
800005b8:	00008067          	ret

800005bc <Invalid_IRQHandler>:
Invalid_IRQHandler():
/home/arthur/riscv_RV32IM_FreeRTOS/FreeRTOS/Debug/../riscv_hal/riscv_hal_stubs.c:37
{
    ;
}

__attribute__((weak))  uint8_t Invalid_IRQHandler(void)
{
800005bc:	ff010113          	addi	sp,sp,-16
800005c0:	00812623          	sw	s0,12(sp)
800005c4:	01010413          	addi	s0,sp,16
/home/arthur/riscv_RV32IM_FreeRTOS/FreeRTOS/Debug/../riscv_hal/riscv_hal_stubs.c:38
    return(0);
800005c8:	00000793          	li	a5,0
/home/arthur/riscv_RV32IM_FreeRTOS/FreeRTOS/Debug/../riscv_hal/riscv_hal_stubs.c:39
}
800005cc:	00078513          	mv	a0,a5
800005d0:	00c12403          	lw	s0,12(sp)
800005d4:	01010113          	addi	sp,sp,16
800005d8:	00008067          	ret

800005dc <External_1_IRQHandler>:
External_1_IRQHandler():
/home/arthur/riscv_RV32IM_FreeRTOS/FreeRTOS/Debug/../riscv_hal/riscv_hal_stubs.c:42

__attribute__((weak))  uint8_t External_1_IRQHandler(void)
{
800005dc:	ff010113          	addi	sp,sp,-16
800005e0:	00812623          	sw	s0,12(sp)
800005e4:	01010413          	addi	s0,sp,16
/home/arthur/riscv_RV32IM_FreeRTOS/FreeRTOS/Debug/../riscv_hal/riscv_hal_stubs.c:43
    return(0);
800005e8:	00000793          	li	a5,0
/home/arthur/riscv_RV32IM_FreeRTOS/FreeRTOS/Debug/../riscv_hal/riscv_hal_stubs.c:44
}
800005ec:	00078513          	mv	a0,a5
800005f0:	00c12403          	lw	s0,12(sp)
800005f4:	01010113          	addi	sp,sp,16
800005f8:	00008067          	ret

800005fc <External_2_IRQHandler>:
External_2_IRQHandler():
/home/arthur/riscv_RV32IM_FreeRTOS/FreeRTOS/Debug/../riscv_hal/riscv_hal_stubs.c:47

__attribute__((weak))  uint8_t External_2_IRQHandler(void)
{
800005fc:	ff010113          	addi	sp,sp,-16
80000600:	00812623          	sw	s0,12(sp)
80000604:	01010413          	addi	s0,sp,16
/home/arthur/riscv_RV32IM_FreeRTOS/FreeRTOS/Debug/../riscv_hal/riscv_hal_stubs.c:48
    return(0);
80000608:	00000793          	li	a5,0
/home/arthur/riscv_RV32IM_FreeRTOS/FreeRTOS/Debug/../riscv_hal/riscv_hal_stubs.c:49
}
8000060c:	00078513          	mv	a0,a5
80000610:	00c12403          	lw	s0,12(sp)
80000614:	01010113          	addi	sp,sp,16
80000618:	00008067          	ret

8000061c <External_3_IRQHandler>:
External_3_IRQHandler():
/home/arthur/riscv_RV32IM_FreeRTOS/FreeRTOS/Debug/../riscv_hal/riscv_hal_stubs.c:52

__attribute__((weak))  uint8_t External_3_IRQHandler(void)
{
8000061c:	ff010113          	addi	sp,sp,-16
80000620:	00812623          	sw	s0,12(sp)
80000624:	01010413          	addi	s0,sp,16
/home/arthur/riscv_RV32IM_FreeRTOS/FreeRTOS/Debug/../riscv_hal/riscv_hal_stubs.c:53
    return(0);
80000628:	00000793          	li	a5,0
/home/arthur/riscv_RV32IM_FreeRTOS/FreeRTOS/Debug/../riscv_hal/riscv_hal_stubs.c:54
}
8000062c:	00078513          	mv	a0,a5
80000630:	00c12403          	lw	s0,12(sp)
80000634:	01010113          	addi	sp,sp,16
80000638:	00008067          	ret

8000063c <External_4_IRQHandler>:
External_4_IRQHandler():
/home/arthur/riscv_RV32IM_FreeRTOS/FreeRTOS/Debug/../riscv_hal/riscv_hal_stubs.c:57

__attribute__((weak))  uint8_t External_4_IRQHandler(void)
{
8000063c:	ff010113          	addi	sp,sp,-16
80000640:	00812623          	sw	s0,12(sp)
80000644:	01010413          	addi	s0,sp,16
/home/arthur/riscv_RV32IM_FreeRTOS/FreeRTOS/Debug/../riscv_hal/riscv_hal_stubs.c:58
    return(0);
80000648:	00000793          	li	a5,0
/home/arthur/riscv_RV32IM_FreeRTOS/FreeRTOS/Debug/../riscv_hal/riscv_hal_stubs.c:59
}
8000064c:	00078513          	mv	a0,a5
80000650:	00c12403          	lw	s0,12(sp)
80000654:	01010113          	addi	sp,sp,16
80000658:	00008067          	ret

8000065c <External_5_IRQHandler>:
External_5_IRQHandler():
/home/arthur/riscv_RV32IM_FreeRTOS/FreeRTOS/Debug/../riscv_hal/riscv_hal_stubs.c:62

__attribute__((weak))  uint8_t External_5_IRQHandler(void)
{
8000065c:	ff010113          	addi	sp,sp,-16
80000660:	00812623          	sw	s0,12(sp)
80000664:	01010413          	addi	s0,sp,16
/home/arthur/riscv_RV32IM_FreeRTOS/FreeRTOS/Debug/../riscv_hal/riscv_hal_stubs.c:63
    return(0);
80000668:	00000793          	li	a5,0
/home/arthur/riscv_RV32IM_FreeRTOS/FreeRTOS/Debug/../riscv_hal/riscv_hal_stubs.c:64
}
8000066c:	00078513          	mv	a0,a5
80000670:	00c12403          	lw	s0,12(sp)
80000674:	01010113          	addi	sp,sp,16
80000678:	00008067          	ret

8000067c <External_6_IRQHandler>:
External_6_IRQHandler():
/home/arthur/riscv_RV32IM_FreeRTOS/FreeRTOS/Debug/../riscv_hal/riscv_hal_stubs.c:67

__attribute__((weak))  uint8_t External_6_IRQHandler(void)
{
8000067c:	ff010113          	addi	sp,sp,-16
80000680:	00812623          	sw	s0,12(sp)
80000684:	01010413          	addi	s0,sp,16
/home/arthur/riscv_RV32IM_FreeRTOS/FreeRTOS/Debug/../riscv_hal/riscv_hal_stubs.c:68
    return(0);
80000688:	00000793          	li	a5,0
/home/arthur/riscv_RV32IM_FreeRTOS/FreeRTOS/Debug/../riscv_hal/riscv_hal_stubs.c:69
}
8000068c:	00078513          	mv	a0,a5
80000690:	00c12403          	lw	s0,12(sp)
80000694:	01010113          	addi	sp,sp,16
80000698:	00008067          	ret

8000069c <External_7_IRQHandler>:
External_7_IRQHandler():
/home/arthur/riscv_RV32IM_FreeRTOS/FreeRTOS/Debug/../riscv_hal/riscv_hal_stubs.c:72

__attribute__((weak))  uint8_t External_7_IRQHandler(void)
{
8000069c:	ff010113          	addi	sp,sp,-16
800006a0:	00812623          	sw	s0,12(sp)
800006a4:	01010413          	addi	s0,sp,16
/home/arthur/riscv_RV32IM_FreeRTOS/FreeRTOS/Debug/../riscv_hal/riscv_hal_stubs.c:73
    return(0);
800006a8:	00000793          	li	a5,0
/home/arthur/riscv_RV32IM_FreeRTOS/FreeRTOS/Debug/../riscv_hal/riscv_hal_stubs.c:74
}
800006ac:	00078513          	mv	a0,a5
800006b0:	00c12403          	lw	s0,12(sp)
800006b4:	01010113          	addi	sp,sp,16
800006b8:	00008067          	ret

800006bc <External_8_IRQHandler>:
External_8_IRQHandler():
/home/arthur/riscv_RV32IM_FreeRTOS/FreeRTOS/Debug/../riscv_hal/riscv_hal_stubs.c:77

__attribute__((weak))  uint8_t External_8_IRQHandler(void)
{
800006bc:	ff010113          	addi	sp,sp,-16
800006c0:	00812623          	sw	s0,12(sp)
800006c4:	01010413          	addi	s0,sp,16
/home/arthur/riscv_RV32IM_FreeRTOS/FreeRTOS/Debug/../riscv_hal/riscv_hal_stubs.c:78
    return(0);
800006c8:	00000793          	li	a5,0
/home/arthur/riscv_RV32IM_FreeRTOS/FreeRTOS/Debug/../riscv_hal/riscv_hal_stubs.c:79
}
800006cc:	00078513          	mv	a0,a5
800006d0:	00c12403          	lw	s0,12(sp)
800006d4:	01010113          	addi	sp,sp,16
800006d8:	00008067          	ret

800006dc <External_9_IRQHandler>:
External_9_IRQHandler():
/home/arthur/riscv_RV32IM_FreeRTOS/FreeRTOS/Debug/../riscv_hal/riscv_hal_stubs.c:82

__attribute__((weak))  uint8_t External_9_IRQHandler(void)
{
800006dc:	ff010113          	addi	sp,sp,-16
800006e0:	00812623          	sw	s0,12(sp)
800006e4:	01010413          	addi	s0,sp,16
/home/arthur/riscv_RV32IM_FreeRTOS/FreeRTOS/Debug/../riscv_hal/riscv_hal_stubs.c:83
    return(0);
800006e8:	00000793          	li	a5,0
/home/arthur/riscv_RV32IM_FreeRTOS/FreeRTOS/Debug/../riscv_hal/riscv_hal_stubs.c:84
}
800006ec:	00078513          	mv	a0,a5
800006f0:	00c12403          	lw	s0,12(sp)
800006f4:	01010113          	addi	sp,sp,16
800006f8:	00008067          	ret

800006fc <External_10_IRQHandler>:
External_10_IRQHandler():
/home/arthur/riscv_RV32IM_FreeRTOS/FreeRTOS/Debug/../riscv_hal/riscv_hal_stubs.c:87

__attribute__((weak))  uint8_t External_10_IRQHandler(void)
{
800006fc:	ff010113          	addi	sp,sp,-16
80000700:	00812623          	sw	s0,12(sp)
80000704:	01010413          	addi	s0,sp,16
/home/arthur/riscv_RV32IM_FreeRTOS/FreeRTOS/Debug/../riscv_hal/riscv_hal_stubs.c:88
    return(0);
80000708:	00000793          	li	a5,0
/home/arthur/riscv_RV32IM_FreeRTOS/FreeRTOS/Debug/../riscv_hal/riscv_hal_stubs.c:89
}
8000070c:	00078513          	mv	a0,a5
80000710:	00c12403          	lw	s0,12(sp)
80000714:	01010113          	addi	sp,sp,16
80000718:	00008067          	ret

8000071c <External_11_IRQHandler>:
External_11_IRQHandler():
/home/arthur/riscv_RV32IM_FreeRTOS/FreeRTOS/Debug/../riscv_hal/riscv_hal_stubs.c:92

__attribute__((weak))  uint8_t External_11_IRQHandler(void)
{
8000071c:	ff010113          	addi	sp,sp,-16
80000720:	00812623          	sw	s0,12(sp)
80000724:	01010413          	addi	s0,sp,16
/home/arthur/riscv_RV32IM_FreeRTOS/FreeRTOS/Debug/../riscv_hal/riscv_hal_stubs.c:93
    return(0);
80000728:	00000793          	li	a5,0
/home/arthur/riscv_RV32IM_FreeRTOS/FreeRTOS/Debug/../riscv_hal/riscv_hal_stubs.c:94
}
8000072c:	00078513          	mv	a0,a5
80000730:	00c12403          	lw	s0,12(sp)
80000734:	01010113          	addi	sp,sp,16
80000738:	00008067          	ret

8000073c <External_12_IRQHandler>:
External_12_IRQHandler():
/home/arthur/riscv_RV32IM_FreeRTOS/FreeRTOS/Debug/../riscv_hal/riscv_hal_stubs.c:97

__attribute__((weak))  uint8_t External_12_IRQHandler(void)
{
8000073c:	ff010113          	addi	sp,sp,-16
80000740:	00812623          	sw	s0,12(sp)
80000744:	01010413          	addi	s0,sp,16
/home/arthur/riscv_RV32IM_FreeRTOS/FreeRTOS/Debug/../riscv_hal/riscv_hal_stubs.c:98
    return(0);
80000748:	00000793          	li	a5,0
/home/arthur/riscv_RV32IM_FreeRTOS/FreeRTOS/Debug/../riscv_hal/riscv_hal_stubs.c:99
}
8000074c:	00078513          	mv	a0,a5
80000750:	00c12403          	lw	s0,12(sp)
80000754:	01010113          	addi	sp,sp,16
80000758:	00008067          	ret

8000075c <External_13_IRQHandler>:
External_13_IRQHandler():
/home/arthur/riscv_RV32IM_FreeRTOS/FreeRTOS/Debug/../riscv_hal/riscv_hal_stubs.c:102

__attribute__((weak))  uint8_t External_13_IRQHandler(void)
{
8000075c:	ff010113          	addi	sp,sp,-16
80000760:	00812623          	sw	s0,12(sp)
80000764:	01010413          	addi	s0,sp,16
/home/arthur/riscv_RV32IM_FreeRTOS/FreeRTOS/Debug/../riscv_hal/riscv_hal_stubs.c:103
    return(0);
80000768:	00000793          	li	a5,0
/home/arthur/riscv_RV32IM_FreeRTOS/FreeRTOS/Debug/../riscv_hal/riscv_hal_stubs.c:104
}
8000076c:	00078513          	mv	a0,a5
80000770:	00c12403          	lw	s0,12(sp)
80000774:	01010113          	addi	sp,sp,16
80000778:	00008067          	ret

8000077c <External_14_IRQHandler>:
External_14_IRQHandler():
/home/arthur/riscv_RV32IM_FreeRTOS/FreeRTOS/Debug/../riscv_hal/riscv_hal_stubs.c:107

__attribute__((weak))  uint8_t External_14_IRQHandler(void)
{
8000077c:	ff010113          	addi	sp,sp,-16
80000780:	00812623          	sw	s0,12(sp)
80000784:	01010413          	addi	s0,sp,16
/home/arthur/riscv_RV32IM_FreeRTOS/FreeRTOS/Debug/../riscv_hal/riscv_hal_stubs.c:108
    return(0);
80000788:	00000793          	li	a5,0
/home/arthur/riscv_RV32IM_FreeRTOS/FreeRTOS/Debug/../riscv_hal/riscv_hal_stubs.c:109
}
8000078c:	00078513          	mv	a0,a5
80000790:	00c12403          	lw	s0,12(sp)
80000794:	01010113          	addi	sp,sp,16
80000798:	00008067          	ret

8000079c <External_15_IRQHandler>:
External_15_IRQHandler():
/home/arthur/riscv_RV32IM_FreeRTOS/FreeRTOS/Debug/../riscv_hal/riscv_hal_stubs.c:112

__attribute__((weak))  uint8_t External_15_IRQHandler(void)
{
8000079c:	ff010113          	addi	sp,sp,-16
800007a0:	00812623          	sw	s0,12(sp)
800007a4:	01010413          	addi	s0,sp,16
/home/arthur/riscv_RV32IM_FreeRTOS/FreeRTOS/Debug/../riscv_hal/riscv_hal_stubs.c:113
    return(0);
800007a8:	00000793          	li	a5,0
/home/arthur/riscv_RV32IM_FreeRTOS/FreeRTOS/Debug/../riscv_hal/riscv_hal_stubs.c:114
}
800007ac:	00078513          	mv	a0,a5
800007b0:	00c12403          	lw	s0,12(sp)
800007b4:	01010113          	addi	sp,sp,16
800007b8:	00008067          	ret

800007bc <External_16_IRQHandler>:
External_16_IRQHandler():
/home/arthur/riscv_RV32IM_FreeRTOS/FreeRTOS/Debug/../riscv_hal/riscv_hal_stubs.c:117

__attribute__((weak))  uint8_t External_16_IRQHandler(void)
{
800007bc:	ff010113          	addi	sp,sp,-16
800007c0:	00812623          	sw	s0,12(sp)
800007c4:	01010413          	addi	s0,sp,16
/home/arthur/riscv_RV32IM_FreeRTOS/FreeRTOS/Debug/../riscv_hal/riscv_hal_stubs.c:118
    return(0);
800007c8:	00000793          	li	a5,0
/home/arthur/riscv_RV32IM_FreeRTOS/FreeRTOS/Debug/../riscv_hal/riscv_hal_stubs.c:119
}
800007cc:	00078513          	mv	a0,a5
800007d0:	00c12403          	lw	s0,12(sp)
800007d4:	01010113          	addi	sp,sp,16
800007d8:	00008067          	ret

800007dc <External_17_IRQHandler>:
External_17_IRQHandler():
/home/arthur/riscv_RV32IM_FreeRTOS/FreeRTOS/Debug/../riscv_hal/riscv_hal_stubs.c:122

__attribute__((weak))  uint8_t External_17_IRQHandler(void)
{
800007dc:	ff010113          	addi	sp,sp,-16
800007e0:	00812623          	sw	s0,12(sp)
800007e4:	01010413          	addi	s0,sp,16
/home/arthur/riscv_RV32IM_FreeRTOS/FreeRTOS/Debug/../riscv_hal/riscv_hal_stubs.c:123
    return(0);
800007e8:	00000793          	li	a5,0
/home/arthur/riscv_RV32IM_FreeRTOS/FreeRTOS/Debug/../riscv_hal/riscv_hal_stubs.c:124
}
800007ec:	00078513          	mv	a0,a5
800007f0:	00c12403          	lw	s0,12(sp)
800007f4:	01010113          	addi	sp,sp,16
800007f8:	00008067          	ret

800007fc <External_18_IRQHandler>:
External_18_IRQHandler():
/home/arthur/riscv_RV32IM_FreeRTOS/FreeRTOS/Debug/../riscv_hal/riscv_hal_stubs.c:127

__attribute__((weak))  uint8_t External_18_IRQHandler(void)
{
800007fc:	ff010113          	addi	sp,sp,-16
80000800:	00812623          	sw	s0,12(sp)
80000804:	01010413          	addi	s0,sp,16
/home/arthur/riscv_RV32IM_FreeRTOS/FreeRTOS/Debug/../riscv_hal/riscv_hal_stubs.c:128
    return(0);
80000808:	00000793          	li	a5,0
/home/arthur/riscv_RV32IM_FreeRTOS/FreeRTOS/Debug/../riscv_hal/riscv_hal_stubs.c:129
}
8000080c:	00078513          	mv	a0,a5
80000810:	00c12403          	lw	s0,12(sp)
80000814:	01010113          	addi	sp,sp,16
80000818:	00008067          	ret

8000081c <External_19_IRQHandler>:
External_19_IRQHandler():
/home/arthur/riscv_RV32IM_FreeRTOS/FreeRTOS/Debug/../riscv_hal/riscv_hal_stubs.c:132

__attribute__((weak))  uint8_t External_19_IRQHandler(void)
{
8000081c:	ff010113          	addi	sp,sp,-16
80000820:	00812623          	sw	s0,12(sp)
80000824:	01010413          	addi	s0,sp,16
/home/arthur/riscv_RV32IM_FreeRTOS/FreeRTOS/Debug/../riscv_hal/riscv_hal_stubs.c:133
    return(0);
80000828:	00000793          	li	a5,0
/home/arthur/riscv_RV32IM_FreeRTOS/FreeRTOS/Debug/../riscv_hal/riscv_hal_stubs.c:134
}
8000082c:	00078513          	mv	a0,a5
80000830:	00c12403          	lw	s0,12(sp)
80000834:	01010113          	addi	sp,sp,16
80000838:	00008067          	ret

8000083c <External_20_IRQHandler>:
External_20_IRQHandler():
/home/arthur/riscv_RV32IM_FreeRTOS/FreeRTOS/Debug/../riscv_hal/riscv_hal_stubs.c:137

__attribute__((weak))  uint8_t External_20_IRQHandler(void)
{
8000083c:	ff010113          	addi	sp,sp,-16
80000840:	00812623          	sw	s0,12(sp)
80000844:	01010413          	addi	s0,sp,16
/home/arthur/riscv_RV32IM_FreeRTOS/FreeRTOS/Debug/../riscv_hal/riscv_hal_stubs.c:138
    return(0);
80000848:	00000793          	li	a5,0
/home/arthur/riscv_RV32IM_FreeRTOS/FreeRTOS/Debug/../riscv_hal/riscv_hal_stubs.c:139
}
8000084c:	00078513          	mv	a0,a5
80000850:	00c12403          	lw	s0,12(sp)
80000854:	01010113          	addi	sp,sp,16
80000858:	00008067          	ret

8000085c <External_21_IRQHandler>:
External_21_IRQHandler():
/home/arthur/riscv_RV32IM_FreeRTOS/FreeRTOS/Debug/../riscv_hal/riscv_hal_stubs.c:142

__attribute__((weak))  uint8_t External_21_IRQHandler(void)
{
8000085c:	ff010113          	addi	sp,sp,-16
80000860:	00812623          	sw	s0,12(sp)
80000864:	01010413          	addi	s0,sp,16
/home/arthur/riscv_RV32IM_FreeRTOS/FreeRTOS/Debug/../riscv_hal/riscv_hal_stubs.c:143
    return(0);
80000868:	00000793          	li	a5,0
/home/arthur/riscv_RV32IM_FreeRTOS/FreeRTOS/Debug/../riscv_hal/riscv_hal_stubs.c:144
}
8000086c:	00078513          	mv	a0,a5
80000870:	00c12403          	lw	s0,12(sp)
80000874:	01010113          	addi	sp,sp,16
80000878:	00008067          	ret

8000087c <External_22_IRQHandler>:
External_22_IRQHandler():
/home/arthur/riscv_RV32IM_FreeRTOS/FreeRTOS/Debug/../riscv_hal/riscv_hal_stubs.c:147

__attribute__((weak))  uint8_t External_22_IRQHandler(void)
{
8000087c:	ff010113          	addi	sp,sp,-16
80000880:	00812623          	sw	s0,12(sp)
80000884:	01010413          	addi	s0,sp,16
/home/arthur/riscv_RV32IM_FreeRTOS/FreeRTOS/Debug/../riscv_hal/riscv_hal_stubs.c:148
    return(0);
80000888:	00000793          	li	a5,0
/home/arthur/riscv_RV32IM_FreeRTOS/FreeRTOS/Debug/../riscv_hal/riscv_hal_stubs.c:149
}
8000088c:	00078513          	mv	a0,a5
80000890:	00c12403          	lw	s0,12(sp)
80000894:	01010113          	addi	sp,sp,16
80000898:	00008067          	ret

8000089c <External_23_IRQHandler>:
External_23_IRQHandler():
/home/arthur/riscv_RV32IM_FreeRTOS/FreeRTOS/Debug/../riscv_hal/riscv_hal_stubs.c:152

__attribute__((weak))  uint8_t External_23_IRQHandler(void)
{
8000089c:	ff010113          	addi	sp,sp,-16
800008a0:	00812623          	sw	s0,12(sp)
800008a4:	01010413          	addi	s0,sp,16
/home/arthur/riscv_RV32IM_FreeRTOS/FreeRTOS/Debug/../riscv_hal/riscv_hal_stubs.c:153
    return(0);
800008a8:	00000793          	li	a5,0
/home/arthur/riscv_RV32IM_FreeRTOS/FreeRTOS/Debug/../riscv_hal/riscv_hal_stubs.c:154
}
800008ac:	00078513          	mv	a0,a5
800008b0:	00c12403          	lw	s0,12(sp)
800008b4:	01010113          	addi	sp,sp,16
800008b8:	00008067          	ret

800008bc <External_24_IRQHandler>:
External_24_IRQHandler():
/home/arthur/riscv_RV32IM_FreeRTOS/FreeRTOS/Debug/../riscv_hal/riscv_hal_stubs.c:157

__attribute__((weak))  uint8_t External_24_IRQHandler(void)
{
800008bc:	ff010113          	addi	sp,sp,-16
800008c0:	00812623          	sw	s0,12(sp)
800008c4:	01010413          	addi	s0,sp,16
/home/arthur/riscv_RV32IM_FreeRTOS/FreeRTOS/Debug/../riscv_hal/riscv_hal_stubs.c:158
    return(0);
800008c8:	00000793          	li	a5,0
/home/arthur/riscv_RV32IM_FreeRTOS/FreeRTOS/Debug/../riscv_hal/riscv_hal_stubs.c:159
}
800008cc:	00078513          	mv	a0,a5
800008d0:	00c12403          	lw	s0,12(sp)
800008d4:	01010113          	addi	sp,sp,16
800008d8:	00008067          	ret

800008dc <External_25_IRQHandler>:
External_25_IRQHandler():
/home/arthur/riscv_RV32IM_FreeRTOS/FreeRTOS/Debug/../riscv_hal/riscv_hal_stubs.c:162

__attribute__((weak))  uint8_t External_25_IRQHandler(void)
{
800008dc:	ff010113          	addi	sp,sp,-16
800008e0:	00812623          	sw	s0,12(sp)
800008e4:	01010413          	addi	s0,sp,16
/home/arthur/riscv_RV32IM_FreeRTOS/FreeRTOS/Debug/../riscv_hal/riscv_hal_stubs.c:163
    return(0);
800008e8:	00000793          	li	a5,0
/home/arthur/riscv_RV32IM_FreeRTOS/FreeRTOS/Debug/../riscv_hal/riscv_hal_stubs.c:164
}
800008ec:	00078513          	mv	a0,a5
800008f0:	00c12403          	lw	s0,12(sp)
800008f4:	01010113          	addi	sp,sp,16
800008f8:	00008067          	ret

800008fc <External_26_IRQHandler>:
External_26_IRQHandler():
/home/arthur/riscv_RV32IM_FreeRTOS/FreeRTOS/Debug/../riscv_hal/riscv_hal_stubs.c:167

__attribute__((weak))  uint8_t External_26_IRQHandler(void)
{
800008fc:	ff010113          	addi	sp,sp,-16
80000900:	00812623          	sw	s0,12(sp)
80000904:	01010413          	addi	s0,sp,16
/home/arthur/riscv_RV32IM_FreeRTOS/FreeRTOS/Debug/../riscv_hal/riscv_hal_stubs.c:168
    return(0);
80000908:	00000793          	li	a5,0
/home/arthur/riscv_RV32IM_FreeRTOS/FreeRTOS/Debug/../riscv_hal/riscv_hal_stubs.c:169
}
8000090c:	00078513          	mv	a0,a5
80000910:	00c12403          	lw	s0,12(sp)
80000914:	01010113          	addi	sp,sp,16
80000918:	00008067          	ret

8000091c <External_27_IRQHandler>:
External_27_IRQHandler():
/home/arthur/riscv_RV32IM_FreeRTOS/FreeRTOS/Debug/../riscv_hal/riscv_hal_stubs.c:172

__attribute__((weak))  uint8_t External_27_IRQHandler(void)
{
8000091c:	ff010113          	addi	sp,sp,-16
80000920:	00812623          	sw	s0,12(sp)
80000924:	01010413          	addi	s0,sp,16
/home/arthur/riscv_RV32IM_FreeRTOS/FreeRTOS/Debug/../riscv_hal/riscv_hal_stubs.c:173
    return(0);
80000928:	00000793          	li	a5,0
/home/arthur/riscv_RV32IM_FreeRTOS/FreeRTOS/Debug/../riscv_hal/riscv_hal_stubs.c:174
}
8000092c:	00078513          	mv	a0,a5
80000930:	00c12403          	lw	s0,12(sp)
80000934:	01010113          	addi	sp,sp,16
80000938:	00008067          	ret

8000093c <External_28_IRQHandler>:
External_28_IRQHandler():
/home/arthur/riscv_RV32IM_FreeRTOS/FreeRTOS/Debug/../riscv_hal/riscv_hal_stubs.c:177

__attribute__((weak))  uint8_t External_28_IRQHandler(void)
{
8000093c:	ff010113          	addi	sp,sp,-16
80000940:	00812623          	sw	s0,12(sp)
80000944:	01010413          	addi	s0,sp,16
/home/arthur/riscv_RV32IM_FreeRTOS/FreeRTOS/Debug/../riscv_hal/riscv_hal_stubs.c:178
    return(0);
80000948:	00000793          	li	a5,0
/home/arthur/riscv_RV32IM_FreeRTOS/FreeRTOS/Debug/../riscv_hal/riscv_hal_stubs.c:179
}
8000094c:	00078513          	mv	a0,a5
80000950:	00c12403          	lw	s0,12(sp)
80000954:	01010113          	addi	sp,sp,16
80000958:	00008067          	ret

8000095c <External_29_IRQHandler>:
External_29_IRQHandler():
/home/arthur/riscv_RV32IM_FreeRTOS/FreeRTOS/Debug/../riscv_hal/riscv_hal_stubs.c:182

__attribute__((weak))  uint8_t External_29_IRQHandler(void)
{
8000095c:	ff010113          	addi	sp,sp,-16
80000960:	00812623          	sw	s0,12(sp)
80000964:	01010413          	addi	s0,sp,16
/home/arthur/riscv_RV32IM_FreeRTOS/FreeRTOS/Debug/../riscv_hal/riscv_hal_stubs.c:183
    return(0);
80000968:	00000793          	li	a5,0
/home/arthur/riscv_RV32IM_FreeRTOS/FreeRTOS/Debug/../riscv_hal/riscv_hal_stubs.c:184
}
8000096c:	00078513          	mv	a0,a5
80000970:	00c12403          	lw	s0,12(sp)
80000974:	01010113          	addi	sp,sp,16
80000978:	00008067          	ret

8000097c <External_30_IRQHandler>:
External_30_IRQHandler():
/home/arthur/riscv_RV32IM_FreeRTOS/FreeRTOS/Debug/../riscv_hal/riscv_hal_stubs.c:187

__attribute__((weak))  uint8_t External_30_IRQHandler(void)
{
8000097c:	ff010113          	addi	sp,sp,-16
80000980:	00812623          	sw	s0,12(sp)
80000984:	01010413          	addi	s0,sp,16
/home/arthur/riscv_RV32IM_FreeRTOS/FreeRTOS/Debug/../riscv_hal/riscv_hal_stubs.c:188
    return(0);
80000988:	00000793          	li	a5,0
/home/arthur/riscv_RV32IM_FreeRTOS/FreeRTOS/Debug/../riscv_hal/riscv_hal_stubs.c:189
}
8000098c:	00078513          	mv	a0,a5
80000990:	00c12403          	lw	s0,12(sp)
80000994:	01010113          	addi	sp,sp,16
80000998:	00008067          	ret

8000099c <External_31_IRQHandler>:
External_31_IRQHandler():
/home/arthur/riscv_RV32IM_FreeRTOS/FreeRTOS/Debug/../riscv_hal/riscv_hal_stubs.c:192

__attribute__((weak))  uint8_t External_31_IRQHandler(void)
{
8000099c:	ff010113          	addi	sp,sp,-16
800009a0:	00812623          	sw	s0,12(sp)
800009a4:	01010413          	addi	s0,sp,16
/home/arthur/riscv_RV32IM_FreeRTOS/FreeRTOS/Debug/../riscv_hal/riscv_hal_stubs.c:193
    return(0);
800009a8:	00000793          	li	a5,0
/home/arthur/riscv_RV32IM_FreeRTOS/FreeRTOS/Debug/../riscv_hal/riscv_hal_stubs.c:194
}
800009ac:	00078513          	mv	a0,a5
800009b0:	00c12403          	lw	s0,12(sp)
800009b4:	01010113          	addi	sp,sp,16
800009b8:	00008067          	ret

800009bc <write_hex>:
write_hex():
/home/arthur/riscv_RV32IM_FreeRTOS/FreeRTOS/Debug/../riscv_hal/syscall.c:55

char *__env[1] = { 0 };
char **environ = __env;

void write_hex(int fd, uint32_t hex)
{
800009bc:	fd010113          	addi	sp,sp,-48
800009c0:	02112623          	sw	ra,44(sp)
800009c4:	02812423          	sw	s0,40(sp)
800009c8:	03010413          	addi	s0,sp,48
800009cc:	fca42e23          	sw	a0,-36(s0)
800009d0:	fcb42c23          	sw	a1,-40(s0)
/home/arthur/riscv_RV32IM_FreeRTOS/FreeRTOS/Debug/../riscv_hal/syscall.c:61
    uint8_t ii;
    uint8_t jj;
    char towrite;
    uint8_t digit;

    write( fd , "0x", 2 );
800009d4:	00200613          	li	a2,2
800009d8:	800037b7          	lui	a5,0x80003
800009dc:	ac078593          	addi	a1,a5,-1344 # 80002ac0 <__stack_top+0xfffc6cb0>
800009e0:	fdc42503          	lw	a0,-36(s0)
800009e4:	06c020ef          	jal	ra,80002a50 <write>
/home/arthur/riscv_RV32IM_FreeRTOS/FreeRTOS/Debug/../riscv_hal/syscall.c:63

    for (ii = 8 ; ii > 0; ii--)
800009e8:	00800793          	li	a5,8
800009ec:	fef407a3          	sb	a5,-17(s0)
800009f0:	0980006f          	j	80000a88 <write_hex+0xcc>
/home/arthur/riscv_RV32IM_FreeRTOS/FreeRTOS/Debug/../riscv_hal/syscall.c:65
    {
        jj = ii-1;
800009f4:	fef44783          	lbu	a5,-17(s0)
800009f8:	fff78793          	addi	a5,a5,-1
800009fc:	fef40723          	sb	a5,-18(s0)
/home/arthur/riscv_RV32IM_FreeRTOS/FreeRTOS/Debug/../riscv_hal/syscall.c:66
        digit = ((hex & (0xF << (jj*4))) >> (jj*4));
80000a00:	fee44783          	lbu	a5,-18(s0)
80000a04:	00279793          	slli	a5,a5,0x2
80000a08:	00f00713          	li	a4,15
80000a0c:	00f717b3          	sll	a5,a4,a5
80000a10:	00078713          	mv	a4,a5
80000a14:	fd842783          	lw	a5,-40(s0)
80000a18:	00f77733          	and	a4,a4,a5
80000a1c:	fee44783          	lbu	a5,-18(s0)
80000a20:	00279793          	slli	a5,a5,0x2
80000a24:	00f757b3          	srl	a5,a4,a5
80000a28:	fef406a3          	sb	a5,-19(s0)
/home/arthur/riscv_RV32IM_FreeRTOS/FreeRTOS/Debug/../riscv_hal/syscall.c:67
        towrite = digit < 0xA ? ('0' + digit) : ('A' +  (digit - 0xA));
80000a2c:	fed44703          	lbu	a4,-19(s0)
80000a30:	00900793          	li	a5,9
80000a34:	00e7ee63          	bltu	a5,a4,80000a50 <write_hex+0x94>
/home/arthur/riscv_RV32IM_FreeRTOS/FreeRTOS/Debug/../riscv_hal/syscall.c:67 (discriminator 1)
80000a38:	fed44783          	lbu	a5,-19(s0)
80000a3c:	03078793          	addi	a5,a5,48
80000a40:	0ff7f793          	andi	a5,a5,255
80000a44:	01879793          	slli	a5,a5,0x18
80000a48:	4187d793          	srai	a5,a5,0x18
80000a4c:	0180006f          	j	80000a64 <write_hex+0xa8>
/home/arthur/riscv_RV32IM_FreeRTOS/FreeRTOS/Debug/../riscv_hal/syscall.c:67 (discriminator 2)
80000a50:	fed44783          	lbu	a5,-19(s0)
80000a54:	03778793          	addi	a5,a5,55
80000a58:	0ff7f793          	andi	a5,a5,255
80000a5c:	01879793          	slli	a5,a5,0x18
80000a60:	4187d793          	srai	a5,a5,0x18
/home/arthur/riscv_RV32IM_FreeRTOS/FreeRTOS/Debug/../riscv_hal/syscall.c:67 (discriminator 4)
80000a64:	fef40623          	sb	a5,-20(s0)
/home/arthur/riscv_RV32IM_FreeRTOS/FreeRTOS/Debug/../riscv_hal/syscall.c:68 (discriminator 4)
        write( fd, &towrite, 1);
80000a68:	fec40793          	addi	a5,s0,-20
80000a6c:	00100613          	li	a2,1
80000a70:	00078593          	mv	a1,a5
80000a74:	fdc42503          	lw	a0,-36(s0)
80000a78:	7d9010ef          	jal	ra,80002a50 <write>
/home/arthur/riscv_RV32IM_FreeRTOS/FreeRTOS/Debug/../riscv_hal/syscall.c:63 (discriminator 4)
    for (ii = 8 ; ii > 0; ii--)
80000a7c:	fef44783          	lbu	a5,-17(s0)
80000a80:	fff78793          	addi	a5,a5,-1
80000a84:	fef407a3          	sb	a5,-17(s0)
/home/arthur/riscv_RV32IM_FreeRTOS/FreeRTOS/Debug/../riscv_hal/syscall.c:63 (discriminator 2)
80000a88:	fef44783          	lbu	a5,-17(s0)
80000a8c:	f60794e3          	bnez	a5,800009f4 <write_hex+0x38>
/home/arthur/riscv_RV32IM_FreeRTOS/FreeRTOS/Debug/../riscv_hal/syscall.c:70
    }
}
80000a90:	00000013          	nop
80000a94:	00000013          	nop
80000a98:	02c12083          	lw	ra,44(sp)
80000a9c:	02812403          	lw	s0,40(sp)
80000aa0:	03010113          	addi	sp,sp,48
80000aa4:	00008067          	ret

80000aa8 <_exit>:
_exit():
/home/arthur/riscv_RV32IM_FreeRTOS/FreeRTOS/Debug/../riscv_hal/syscall.c:74

               
void _exit(int code)
{
80000aa8:	fd010113          	addi	sp,sp,-48
80000aac:	02112623          	sw	ra,44(sp)
80000ab0:	02812423          	sw	s0,40(sp)
80000ab4:	03010413          	addi	s0,sp,48
80000ab8:	fca42e23          	sw	a0,-36(s0)
/home/arthur/riscv_RV32IM_FreeRTOS/FreeRTOS/Debug/../riscv_hal/syscall.c:76
#ifdef MSCC_STDIO_THRU_CORE_UART_APB
    const char * message = "\nProgam has exited with code:";
80000abc:	800037b7          	lui	a5,0x80003
80000ac0:	ac478793          	addi	a5,a5,-1340 # 80002ac4 <__stack_top+0xfffc6cb4>
80000ac4:	fef42623          	sw	a5,-20(s0)
/home/arthur/riscv_RV32IM_FreeRTOS/FreeRTOS/Debug/../riscv_hal/syscall.c:78

    write(STDERR_FILENO, message, strlen(message));
80000ac8:	fec42503          	lw	a0,-20(s0)
80000acc:	09c010ef          	jal	ra,80001b68 <strlen>
80000ad0:	00050793          	mv	a5,a0
80000ad4:	00078613          	mv	a2,a5
80000ad8:	fec42583          	lw	a1,-20(s0)
80000adc:	00200513          	li	a0,2
80000ae0:	771010ef          	jal	ra,80002a50 <write>
/home/arthur/riscv_RV32IM_FreeRTOS/FreeRTOS/Debug/../riscv_hal/syscall.c:79
    write_hex(STDERR_FILENO, code);
80000ae4:	fdc42783          	lw	a5,-36(s0)
80000ae8:	00078593          	mv	a1,a5
80000aec:	00200513          	li	a0,2
80000af0:	ecdff0ef          	jal	ra,800009bc <write_hex>
/home/arthur/riscv_RV32IM_FreeRTOS/FreeRTOS/Debug/../riscv_hal/syscall.c:82 (discriminator 1)
#endif

    while (1);
80000af4:	0000006f          	j	80000af4 <_exit+0x4c>

80000af8 <_isatty>:
_isatty():
/home/arthur/riscv_RV32IM_FreeRTOS/FreeRTOS/Debug/../riscv_hal/syscall.c:101
    curbrk += incr;
    return curbrk - incr;
}

int _isatty(int fd)
{
80000af8:	fe010113          	addi	sp,sp,-32
80000afc:	00812e23          	sw	s0,28(sp)
80000b00:	02010413          	addi	s0,sp,32
80000b04:	fea42623          	sw	a0,-20(s0)
/home/arthur/riscv_RV32IM_FreeRTOS/FreeRTOS/Debug/../riscv_hal/syscall.c:102
    if (fd == STDOUT_FILENO || fd == STDERR_FILENO)
80000b08:	fec42703          	lw	a4,-20(s0)
80000b0c:	00100793          	li	a5,1
80000b10:	00f70863          	beq	a4,a5,80000b20 <_isatty+0x28>
/home/arthur/riscv_RV32IM_FreeRTOS/FreeRTOS/Debug/../riscv_hal/syscall.c:102 (discriminator 1)
80000b14:	fec42703          	lw	a4,-20(s0)
80000b18:	00200793          	li	a5,2
80000b1c:	00f71663          	bne	a4,a5,80000b28 <_isatty+0x30>
/home/arthur/riscv_RV32IM_FreeRTOS/FreeRTOS/Debug/../riscv_hal/syscall.c:104
    {
        return 1;
80000b20:	00100793          	li	a5,1
80000b24:	0100006f          	j	80000b34 <_isatty+0x3c>
/home/arthur/riscv_RV32IM_FreeRTOS/FreeRTOS/Debug/../riscv_hal/syscall.c:107
    }

    errno = EBADF;
80000b28:	00900713          	li	a4,9
80000b2c:	90e1aa23          	sw	a4,-1772(gp) # 80002ce4 <errno>
/home/arthur/riscv_RV32IM_FreeRTOS/FreeRTOS/Debug/../riscv_hal/syscall.c:108
    return 0;
80000b30:	00000793          	li	a5,0
/home/arthur/riscv_RV32IM_FreeRTOS/FreeRTOS/Debug/../riscv_hal/syscall.c:109
}
80000b34:	00078513          	mv	a0,a5
80000b38:	01c12403          	lw	s0,28(sp)
80000b3c:	02010113          	addi	sp,sp,32
80000b40:	00008067          	ret

80000b44 <stub>:
stub():
/home/arthur/riscv_RV32IM_FreeRTOS/FreeRTOS/Debug/../riscv_hal/syscall.c:112

static int stub(int err)
{
80000b44:	fe010113          	addi	sp,sp,-32
80000b48:	00812e23          	sw	s0,28(sp)
80000b4c:	02010413          	addi	s0,sp,32
80000b50:	fea42623          	sw	a0,-20(s0)
/home/arthur/riscv_RV32IM_FreeRTOS/FreeRTOS/Debug/../riscv_hal/syscall.c:113
    errno = err;
80000b54:	fec42703          	lw	a4,-20(s0)
80000b58:	90e1aa23          	sw	a4,-1772(gp) # 80002ce4 <errno>
/home/arthur/riscv_RV32IM_FreeRTOS/FreeRTOS/Debug/../riscv_hal/syscall.c:114
    return -1;
80000b5c:	fff00793          	li	a5,-1
/home/arthur/riscv_RV32IM_FreeRTOS/FreeRTOS/Debug/../riscv_hal/syscall.c:115
}
80000b60:	00078513          	mv	a0,a5
80000b64:	01c12403          	lw	s0,28(sp)
80000b68:	02010113          	addi	sp,sp,32
80000b6c:	00008067          	ret

80000b70 <_write>:
_write():
/home/arthur/riscv_RV32IM_FreeRTOS/FreeRTOS/Debug/../riscv_hal/syscall.c:226
{
    return stub(ECHILD);
}

ssize_t _write(int fd, const void* ptr, size_t len)
{
80000b70:	fd010113          	addi	sp,sp,-48
80000b74:	02112623          	sw	ra,44(sp)
80000b78:	02812423          	sw	s0,40(sp)
80000b7c:	03010413          	addi	s0,sp,48
80000b80:	fca42e23          	sw	a0,-36(s0)
80000b84:	fcb42c23          	sw	a1,-40(s0)
80000b88:	fcc42a23          	sw	a2,-44(s0)
/home/arthur/riscv_RV32IM_FreeRTOS/FreeRTOS/Debug/../riscv_hal/syscall.c:229

#ifdef MSCC_STDIO_THRU_CORE_UART_APB
  const uint8_t * current = (const uint8_t *) ptr;
80000b8c:	fd842783          	lw	a5,-40(s0)
80000b90:	fef42423          	sw	a5,-24(s0)
/home/arthur/riscv_RV32IM_FreeRTOS/FreeRTOS/Debug/../riscv_hal/syscall.c:232
  size_t jj;

  if (_isatty(fd))
80000b94:	fdc42503          	lw	a0,-36(s0)
80000b98:	f61ff0ef          	jal	ra,80000af8 <_isatty>
80000b9c:	00050793          	mv	a5,a0
80000ba0:	08078c63          	beqz	a5,80000c38 <_write+0xc8>
/home/arthur/riscv_RV32IM_FreeRTOS/FreeRTOS/Debug/../riscv_hal/syscall.c:238
  {
        /*--------------------------------------------------------------------------
        * Initialize the UART driver if it is the first time this function is
        * called.
        */
        if ( !g_stdio_uart_init_done )
80000ba4:	9101a783          	lw	a5,-1776(gp) # 80002ce0 <g_stdio_uart_init_done>
80000ba8:	02079063          	bnez	a5,80000bc8 <_write+0x58>
/home/arthur/riscv_RV32IM_FreeRTOS/FreeRTOS/Debug/../riscv_hal/syscall.c:245
            /******************************************************************************
            * Baud value:
            * This value is calculated using the following equation:
            *      BAUD_VALUE = (CLOCK / (16 * BAUD_RATE)) - 1
            *****************************************************************************/
            UART_init( &g_stdio_uart, MSCC_STDIO_UART_BASE_ADDR, ((SYS_CLK_FREQ/(16 * MSCC_STDIO_BAUD_VALUE))-1), (DATA_8_BITS | NO_PARITY));
80000bac:	00100693          	li	a3,1
80000bb0:	02c00613          	li	a2,44
80000bb4:	700015b7          	lui	a1,0x70001
80000bb8:	90818513          	addi	a0,gp,-1784 # 80002cd8 <g_stdio_uart>
80000bbc:	174000ef          	jal	ra,80000d30 <UART_init>
/home/arthur/riscv_RV32IM_FreeRTOS/FreeRTOS/Debug/../riscv_hal/syscall.c:246
            g_stdio_uart_init_done = 1;
80000bc0:	00100713          	li	a4,1
80000bc4:	90e1a823          	sw	a4,-1776(gp) # 80002ce0 <g_stdio_uart_init_done>
/home/arthur/riscv_RV32IM_FreeRTOS/FreeRTOS/Debug/../riscv_hal/syscall.c:249
        }

    for (jj = 0; jj < len; jj++)
80000bc8:	fe042623          	sw	zero,-20(s0)
80000bcc:	0580006f          	j	80000c24 <_write+0xb4>
/home/arthur/riscv_RV32IM_FreeRTOS/FreeRTOS/Debug/../riscv_hal/syscall.c:251
    {
        UART_send(&g_stdio_uart, current + jj, 1);
80000bd0:	fe842703          	lw	a4,-24(s0)
80000bd4:	fec42783          	lw	a5,-20(s0)
80000bd8:	00f707b3          	add	a5,a4,a5
80000bdc:	00100613          	li	a2,1
80000be0:	00078593          	mv	a1,a5
80000be4:	90818513          	addi	a0,gp,-1784 # 80002cd8 <g_stdio_uart>
80000be8:	260000ef          	jal	ra,80000e48 <UART_send>
/home/arthur/riscv_RV32IM_FreeRTOS/FreeRTOS/Debug/../riscv_hal/syscall.c:252
        if (current[jj] == '\n')
80000bec:	fe842703          	lw	a4,-24(s0)
80000bf0:	fec42783          	lw	a5,-20(s0)
80000bf4:	00f707b3          	add	a5,a4,a5
80000bf8:	0007c703          	lbu	a4,0(a5)
80000bfc:	00a00793          	li	a5,10
80000c00:	00f71c63          	bne	a4,a5,80000c18 <_write+0xa8>
/home/arthur/riscv_RV32IM_FreeRTOS/FreeRTOS/Debug/../riscv_hal/syscall.c:254
        {
            UART_send(&g_stdio_uart, (const uint8_t *)"\r", 1);
80000c04:	00100613          	li	a2,1
80000c08:	800037b7          	lui	a5,0x80003
80000c0c:	ae478593          	addi	a1,a5,-1308 # 80002ae4 <__stack_top+0xfffc6cd4>
80000c10:	90818513          	addi	a0,gp,-1784 # 80002cd8 <g_stdio_uart>
80000c14:	234000ef          	jal	ra,80000e48 <UART_send>
/home/arthur/riscv_RV32IM_FreeRTOS/FreeRTOS/Debug/../riscv_hal/syscall.c:249 (discriminator 2)
    for (jj = 0; jj < len; jj++)
80000c18:	fec42783          	lw	a5,-20(s0)
80000c1c:	00178793          	addi	a5,a5,1
80000c20:	fef42623          	sw	a5,-20(s0)
/home/arthur/riscv_RV32IM_FreeRTOS/FreeRTOS/Debug/../riscv_hal/syscall.c:249 (discriminator 1)
80000c24:	fec42703          	lw	a4,-20(s0)
80000c28:	fd442783          	lw	a5,-44(s0)
80000c2c:	faf762e3          	bltu	a4,a5,80000bd0 <_write+0x60>
/home/arthur/riscv_RV32IM_FreeRTOS/FreeRTOS/Debug/../riscv_hal/syscall.c:257
        }
    }
    return len;
80000c30:	fd442783          	lw	a5,-44(s0)
80000c34:	0100006f          	j	80000c44 <_write+0xd4>
/home/arthur/riscv_RV32IM_FreeRTOS/FreeRTOS/Debug/../riscv_hal/syscall.c:261
  }
#endif

  return stub(EBADF);
80000c38:	00900513          	li	a0,9
80000c3c:	f09ff0ef          	jal	ra,80000b44 <stub>
80000c40:	00050793          	mv	a5,a0
/home/arthur/riscv_RV32IM_FreeRTOS/FreeRTOS/Debug/../riscv_hal/syscall.c:262
}
80000c44:	00078513          	mv	a0,a5
80000c48:	02c12083          	lw	ra,44(sp)
80000c4c:	02812403          	lw	s0,40(sp)
80000c50:	03010113          	addi	sp,sp,48
80000c54:	00008067          	ret

80000c58 <HW_set_32bit_reg>:
HW_set_32bit_reg():
/home/arthur/riscv_RV32IM_FreeRTOS/FreeRTOS/Debug/../hal/hw_reg_access.S:36
 *
 * a0:   addr_t reg_addr
 * a1:   uint32_t value
 */
HW_set_32bit_reg:
    sw a1, 0(a0)
80000c58:	00b52023          	sw	a1,0(a0)
/home/arthur/riscv_RV32IM_FreeRTOS/FreeRTOS/Debug/../hal/hw_reg_access.S:37
    ret
80000c5c:	00008067          	ret

80000c60 <HW_get_32bit_reg>:
HW_get_32bit_reg():
/home/arthur/riscv_RV32IM_FreeRTOS/FreeRTOS/Debug/../hal/hw_reg_access.S:47
 *
 * R0:   addr_t reg_addr
 * @return          32 bits value read from the peripheral register.
 */
HW_get_32bit_reg:
    lw a0, 0(a0)
80000c60:	00052503          	lw	a0,0(a0)
/home/arthur/riscv_RV32IM_FreeRTOS/FreeRTOS/Debug/../hal/hw_reg_access.S:48
    ret
80000c64:	00008067          	ret

80000c68 <HW_set_32bit_reg_field>:
HW_set_32bit_reg_field():
/home/arthur/riscv_RV32IM_FreeRTOS/FreeRTOS/Debug/../hal/hw_reg_access.S:60
 * a1:   int_fast8_t shift
 * a2:   uint32_t mask
 * a3:   uint32_t value
 */
HW_set_32bit_reg_field:
    mv t3, a3
80000c68:	00068e13          	mv	t3,a3
/home/arthur/riscv_RV32IM_FreeRTOS/FreeRTOS/Debug/../hal/hw_reg_access.S:61
    sll t3, t3, a1
80000c6c:	00be1e33          	sll	t3,t3,a1
/home/arthur/riscv_RV32IM_FreeRTOS/FreeRTOS/Debug/../hal/hw_reg_access.S:62
    and  t3, t3, a2
80000c70:	00ce7e33          	and	t3,t3,a2
/home/arthur/riscv_RV32IM_FreeRTOS/FreeRTOS/Debug/../hal/hw_reg_access.S:63
    lw t1, 0(a0)
80000c74:	00052303          	lw	t1,0(a0)
/home/arthur/riscv_RV32IM_FreeRTOS/FreeRTOS/Debug/../hal/hw_reg_access.S:64
    mv t2, a2
80000c78:	00060393          	mv	t2,a2
/home/arthur/riscv_RV32IM_FreeRTOS/FreeRTOS/Debug/../hal/hw_reg_access.S:65
    not t2, t2
80000c7c:	fff3c393          	not	t2,t2
/home/arthur/riscv_RV32IM_FreeRTOS/FreeRTOS/Debug/../hal/hw_reg_access.S:66
    and t1, t1, t2
80000c80:	00737333          	and	t1,t1,t2
/home/arthur/riscv_RV32IM_FreeRTOS/FreeRTOS/Debug/../hal/hw_reg_access.S:67
    or t1, t1, t3
80000c84:	01c36333          	or	t1,t1,t3
/home/arthur/riscv_RV32IM_FreeRTOS/FreeRTOS/Debug/../hal/hw_reg_access.S:68
    sw t1, 0(a0)
80000c88:	00652023          	sw	t1,0(a0)
/home/arthur/riscv_RV32IM_FreeRTOS/FreeRTOS/Debug/../hal/hw_reg_access.S:69
    ret
80000c8c:	00008067          	ret

80000c90 <HW_get_32bit_reg_field>:
HW_get_32bit_reg_field():
/home/arthur/riscv_RV32IM_FreeRTOS/FreeRTOS/Debug/../hal/hw_reg_access.S:83
 *
 * @return          32 bits value containing the register field value specified
 *                  as parameter.
 */
HW_get_32bit_reg_field:
    lw a0, 0(a0)
80000c90:	00052503          	lw	a0,0(a0)
/home/arthur/riscv_RV32IM_FreeRTOS/FreeRTOS/Debug/../hal/hw_reg_access.S:84
    and a0, a0, a2
80000c94:	00c57533          	and	a0,a0,a2
/home/arthur/riscv_RV32IM_FreeRTOS/FreeRTOS/Debug/../hal/hw_reg_access.S:85
    srl a0, a0, a1
80000c98:	00b55533          	srl	a0,a0,a1
/home/arthur/riscv_RV32IM_FreeRTOS/FreeRTOS/Debug/../hal/hw_reg_access.S:86
    ret
80000c9c:	00008067          	ret

80000ca0 <HW_set_16bit_reg>:
HW_set_16bit_reg():
/home/arthur/riscv_RV32IM_FreeRTOS/FreeRTOS/Debug/../hal/hw_reg_access.S:96
 *
 * a0:   addr_t reg_addr
 * a1:   uint_fast16_t value
 */
HW_set_16bit_reg:
    sh a1, 0(a0)
80000ca0:	00b51023          	sh	a1,0(a0)
/home/arthur/riscv_RV32IM_FreeRTOS/FreeRTOS/Debug/../hal/hw_reg_access.S:97
    ret
80000ca4:	00008067          	ret

80000ca8 <HW_get_16bit_reg>:
HW_get_16bit_reg():
/home/arthur/riscv_RV32IM_FreeRTOS/FreeRTOS/Debug/../hal/hw_reg_access.S:107
 *
 * a0:   addr_t reg_addr
 * @return          16 bits value read from the peripheral register.
 */
HW_get_16bit_reg:
    lh a0, (a0)
80000ca8:	00051503          	lh	a0,0(a0)
/home/arthur/riscv_RV32IM_FreeRTOS/FreeRTOS/Debug/../hal/hw_reg_access.S:108
    ret
80000cac:	00008067          	ret

80000cb0 <HW_set_16bit_reg_field>:
HW_set_16bit_reg_field():
/home/arthur/riscv_RV32IM_FreeRTOS/FreeRTOS/Debug/../hal/hw_reg_access.S:121
 * a2:   uint_fast16_t mask
 * a3:   uint_fast16_t value
 * @param value     Value to be written in the specified field.
 */
HW_set_16bit_reg_field:
    mv t3, a3
80000cb0:	00068e13          	mv	t3,a3
/home/arthur/riscv_RV32IM_FreeRTOS/FreeRTOS/Debug/../hal/hw_reg_access.S:122
    sll t3, t3, a1
80000cb4:	00be1e33          	sll	t3,t3,a1
/home/arthur/riscv_RV32IM_FreeRTOS/FreeRTOS/Debug/../hal/hw_reg_access.S:123
    and  t3, t3, a2
80000cb8:	00ce7e33          	and	t3,t3,a2
/home/arthur/riscv_RV32IM_FreeRTOS/FreeRTOS/Debug/../hal/hw_reg_access.S:124
    lh t1, 0(a0)
80000cbc:	00051303          	lh	t1,0(a0)
/home/arthur/riscv_RV32IM_FreeRTOS/FreeRTOS/Debug/../hal/hw_reg_access.S:125
    mv t2, a2
80000cc0:	00060393          	mv	t2,a2
/home/arthur/riscv_RV32IM_FreeRTOS/FreeRTOS/Debug/../hal/hw_reg_access.S:126
    not t2, t2
80000cc4:	fff3c393          	not	t2,t2
/home/arthur/riscv_RV32IM_FreeRTOS/FreeRTOS/Debug/../hal/hw_reg_access.S:127
    and t1, t1, t2
80000cc8:	00737333          	and	t1,t1,t2
/home/arthur/riscv_RV32IM_FreeRTOS/FreeRTOS/Debug/../hal/hw_reg_access.S:128
    or t1, t1, t3
80000ccc:	01c36333          	or	t1,t1,t3
/home/arthur/riscv_RV32IM_FreeRTOS/FreeRTOS/Debug/../hal/hw_reg_access.S:129
    sh t1, 0(a0)
80000cd0:	00651023          	sh	t1,0(a0)
/home/arthur/riscv_RV32IM_FreeRTOS/FreeRTOS/Debug/../hal/hw_reg_access.S:130
    ret
80000cd4:	00008067          	ret

80000cd8 <HW_get_16bit_reg_field>:
HW_get_16bit_reg_field():
/home/arthur/riscv_RV32IM_FreeRTOS/FreeRTOS/Debug/../hal/hw_reg_access.S:144
 *
 * @return          16 bits value containing the register field value specified
 *                  as parameter.
 */
HW_get_16bit_reg_field:
    lh a0, 0(a0)
80000cd8:	00051503          	lh	a0,0(a0)
/home/arthur/riscv_RV32IM_FreeRTOS/FreeRTOS/Debug/../hal/hw_reg_access.S:145
    and a0, a0, a2
80000cdc:	00c57533          	and	a0,a0,a2
/home/arthur/riscv_RV32IM_FreeRTOS/FreeRTOS/Debug/../hal/hw_reg_access.S:146
    srl a0, a0, a1
80000ce0:	00b55533          	srl	a0,a0,a1
/home/arthur/riscv_RV32IM_FreeRTOS/FreeRTOS/Debug/../hal/hw_reg_access.S:147
    ret
80000ce4:	00008067          	ret

80000ce8 <HW_set_8bit_reg>:
HW_set_8bit_reg():
/home/arthur/riscv_RV32IM_FreeRTOS/FreeRTOS/Debug/../hal/hw_reg_access.S:157
 *
 * a0:   addr_t reg_addr
 * a1:   uint_fast8_t value
 */
HW_set_8bit_reg:
    sb a1, 0(a0)
80000ce8:	00b50023          	sb	a1,0(a0)
/home/arthur/riscv_RV32IM_FreeRTOS/FreeRTOS/Debug/../hal/hw_reg_access.S:158
    ret
80000cec:	00008067          	ret

80000cf0 <HW_get_8bit_reg>:
HW_get_8bit_reg():
/home/arthur/riscv_RV32IM_FreeRTOS/FreeRTOS/Debug/../hal/hw_reg_access.S:168
 *
 * a0:   addr_t reg_addr
 * @return          8 bits value read from the peripheral register.
 */
HW_get_8bit_reg:
    lb a0, 0(a0)
80000cf0:	00050503          	lb	a0,0(a0)
/home/arthur/riscv_RV32IM_FreeRTOS/FreeRTOS/Debug/../hal/hw_reg_access.S:169
    ret
80000cf4:	00008067          	ret

80000cf8 <HW_set_8bit_reg_field>:
HW_set_8bit_reg_field():
/home/arthur/riscv_RV32IM_FreeRTOS/FreeRTOS/Debug/../hal/hw_reg_access.S:181
 * a1:   int_fast8_t shift
 * a2:   uint_fast8_t mask
 * a3:   uint_fast8_t value
 */
HW_set_8bit_reg_field:
    mv t3, a3
80000cf8:	00068e13          	mv	t3,a3
/home/arthur/riscv_RV32IM_FreeRTOS/FreeRTOS/Debug/../hal/hw_reg_access.S:182
    sll t3, t3, a1
80000cfc:	00be1e33          	sll	t3,t3,a1
/home/arthur/riscv_RV32IM_FreeRTOS/FreeRTOS/Debug/../hal/hw_reg_access.S:183
    and  t3, t3, a2
80000d00:	00ce7e33          	and	t3,t3,a2
/home/arthur/riscv_RV32IM_FreeRTOS/FreeRTOS/Debug/../hal/hw_reg_access.S:184
    lb t1, 0(a0)
80000d04:	00050303          	lb	t1,0(a0)
/home/arthur/riscv_RV32IM_FreeRTOS/FreeRTOS/Debug/../hal/hw_reg_access.S:185
    mv t2, a2
80000d08:	00060393          	mv	t2,a2
/home/arthur/riscv_RV32IM_FreeRTOS/FreeRTOS/Debug/../hal/hw_reg_access.S:186
    not t2, t2
80000d0c:	fff3c393          	not	t2,t2
/home/arthur/riscv_RV32IM_FreeRTOS/FreeRTOS/Debug/../hal/hw_reg_access.S:187
    and t1, t1, t2
80000d10:	00737333          	and	t1,t1,t2
/home/arthur/riscv_RV32IM_FreeRTOS/FreeRTOS/Debug/../hal/hw_reg_access.S:188
    or t1, t1, t3
80000d14:	01c36333          	or	t1,t1,t3
/home/arthur/riscv_RV32IM_FreeRTOS/FreeRTOS/Debug/../hal/hw_reg_access.S:189
    sb t1, 0(a0)
80000d18:	00650023          	sb	t1,0(a0)
/home/arthur/riscv_RV32IM_FreeRTOS/FreeRTOS/Debug/../hal/hw_reg_access.S:190
    ret
80000d1c:	00008067          	ret

80000d20 <HW_get_8bit_reg_field>:
HW_get_8bit_reg_field():
/home/arthur/riscv_RV32IM_FreeRTOS/FreeRTOS/Debug/../hal/hw_reg_access.S:204
 *
 * @return          8 bits value containing the register field value specified
 *                  as parameter.
 */
HW_get_8bit_reg_field:
    lb a0, 0(a0)
80000d20:	00050503          	lb	a0,0(a0)
/home/arthur/riscv_RV32IM_FreeRTOS/FreeRTOS/Debug/../hal/hw_reg_access.S:205
    and a0, a0, a2
80000d24:	00c57533          	and	a0,a0,a2
/home/arthur/riscv_RV32IM_FreeRTOS/FreeRTOS/Debug/../hal/hw_reg_access.S:206
    srl a0, a0, a1
80000d28:	00b55533          	srl	a0,a0,a1
/home/arthur/riscv_RV32IM_FreeRTOS/FreeRTOS/Debug/../hal/hw_reg_access.S:207
    ret
80000d2c:	00008067          	ret

80000d30 <UART_init>:
UART_init():
/home/arthur/riscv_RV32IM_FreeRTOS/FreeRTOS/Debug/../drivers/CoreUARTapb/core_uart_apb.c:46
    UART_instance_t * this_uart,
    addr_t base_addr,
    uint16_t baud_value,
    uint8_t line_config
)
{
80000d30:	fd010113          	addi	sp,sp,-48
80000d34:	02112623          	sw	ra,44(sp)
80000d38:	02812423          	sw	s0,40(sp)
80000d3c:	03010413          	addi	s0,sp,48
80000d40:	fca42e23          	sw	a0,-36(s0)
80000d44:	fcb42c23          	sw	a1,-40(s0)
80000d48:	00060793          	mv	a5,a2
80000d4c:	00068713          	mv	a4,a3
80000d50:	fcf41b23          	sh	a5,-42(s0)
80000d54:	00070793          	mv	a5,a4
80000d58:	fcf40aa3          	sb	a5,-43(s0)
/home/arthur/riscv_RV32IM_FreeRTOS/FreeRTOS/Debug/../drivers/CoreUARTapb/core_uart_apb.c:53
    
    HAL_ASSERT( this_uart != NULL_INSTANCE )
    HAL_ASSERT( line_config <= MAX_LINE_CONFIG )
    HAL_ASSERT( baud_value <= MAX_BAUD_VALUE )

    if( ( this_uart != NULL_INSTANCE ) &&
80000d5c:	fdc42783          	lw	a5,-36(s0)
80000d60:	0c078a63          	beqz	a5,80000e34 <UART_init+0x104>
/home/arthur/riscv_RV32IM_FreeRTOS/FreeRTOS/Debug/../drivers/CoreUARTapb/core_uart_apb.c:53 (discriminator 1)
80000d64:	fd544703          	lbu	a4,-43(s0)
80000d68:	00700793          	li	a5,7
80000d6c:	0ce7e463          	bltu	a5,a4,80000e34 <UART_init+0x104>
/home/arthur/riscv_RV32IM_FreeRTOS/FreeRTOS/Debug/../drivers/CoreUARTapb/core_uart_apb.c:54
        ( line_config <= MAX_LINE_CONFIG ) &&
80000d70:	fd645703          	lhu	a4,-42(s0)
80000d74:	000027b7          	lui	a5,0x2
80000d78:	0af77e63          	bgeu	a4,a5,80000e34 <UART_init+0x104>
/home/arthur/riscv_RV32IM_FreeRTOS/FreeRTOS/Debug/../drivers/CoreUARTapb/core_uart_apb.c:60
        ( baud_value <= MAX_BAUD_VALUE ) )
    {
        /*
         * Store lower 8-bits of baud value in CTRL1.
         */
        HAL_set_8bit_reg( base_addr, CTRL1, (uint_fast8_t)(baud_value &
80000d7c:	fd842783          	lw	a5,-40(s0)
80000d80:	00878713          	addi	a4,a5,8 # 2008 <HEAP_SIZE-0xdff8>
80000d84:	fd645783          	lhu	a5,-42(s0)
80000d88:	0ff7f793          	andi	a5,a5,255
80000d8c:	00078593          	mv	a1,a5
80000d90:	00070513          	mv	a0,a4
80000d94:	f55ff0ef          	jal	ra,80000ce8 <HW_set_8bit_reg>
/home/arthur/riscv_RV32IM_FreeRTOS/FreeRTOS/Debug/../drivers/CoreUARTapb/core_uart_apb.c:67
    
        /*
         * Extract higher 5-bits of baud value and store in higher 5-bits 
         * of CTRL2, along with line configuration in lower 3 three bits.
         */
        HAL_set_8bit_reg( base_addr, CTRL2, (uint_fast8_t)line_config | 
80000d98:	fd842783          	lw	a5,-40(s0)
80000d9c:	00c78693          	addi	a3,a5,12
80000da0:	fd544703          	lbu	a4,-43(s0)
80000da4:	fd645783          	lhu	a5,-42(s0)
80000da8:	4057d793          	srai	a5,a5,0x5
80000dac:	7f87f793          	andi	a5,a5,2040
80000db0:	00f767b3          	or	a5,a4,a5
80000db4:	00078593          	mv	a1,a5
80000db8:	00068513          	mv	a0,a3
80000dbc:	f2dff0ef          	jal	ra,80000ce8 <HW_set_8bit_reg>
/home/arthur/riscv_RV32IM_FreeRTOS/FreeRTOS/Debug/../drivers/CoreUARTapb/core_uart_apb.c:71
                                           (uint_fast8_t)((baud_value &
                                   BAUDVALUE_MSB) >> BAUDVALUE_SHIFT ) );
    
        this_uart->base_address = base_addr;
80000dc0:	fdc42783          	lw	a5,-36(s0)
80000dc4:	fd842703          	lw	a4,-40(s0)
80000dc8:	00e7a023          	sw	a4,0(a5)
/home/arthur/riscv_RV32IM_FreeRTOS/FreeRTOS/Debug/../drivers/CoreUARTapb/core_uart_apb.c:94
        
        /*
         * Flush the receive FIFO of data that may have been received before the
         * driver was initialized.
         */
        rx_full = HAL_get_8bit_reg( this_uart->base_address, STATUS ) &
80000dcc:	fdc42783          	lw	a5,-36(s0)
80000dd0:	0007a783          	lw	a5,0(a5)
80000dd4:	01078793          	addi	a5,a5,16
80000dd8:	00078513          	mv	a0,a5
80000ddc:	f15ff0ef          	jal	ra,80000cf0 <HW_get_8bit_reg>
80000de0:	00050793          	mv	a5,a0
80000de4:	0027f793          	andi	a5,a5,2
80000de8:	fef407a3          	sb	a5,-17(s0)
/home/arthur/riscv_RV32IM_FreeRTOS/FreeRTOS/Debug/../drivers/CoreUARTapb/core_uart_apb.c:96
                                                    STATUS_RXFULL_MASK;
        while ( rx_full )
80000dec:	0380006f          	j	80000e24 <UART_init+0xf4>
/home/arthur/riscv_RV32IM_FreeRTOS/FreeRTOS/Debug/../drivers/CoreUARTapb/core_uart_apb.c:98
        {
            HAL_get_8bit_reg( this_uart->base_address, RXDATA );
80000df0:	fdc42783          	lw	a5,-36(s0)
80000df4:	0007a783          	lw	a5,0(a5)
80000df8:	00478793          	addi	a5,a5,4
80000dfc:	00078513          	mv	a0,a5
80000e00:	ef1ff0ef          	jal	ra,80000cf0 <HW_get_8bit_reg>
/home/arthur/riscv_RV32IM_FreeRTOS/FreeRTOS/Debug/../drivers/CoreUARTapb/core_uart_apb.c:99
            rx_full = HAL_get_8bit_reg( this_uart->base_address, STATUS ) &
80000e04:	fdc42783          	lw	a5,-36(s0)
80000e08:	0007a783          	lw	a5,0(a5)
80000e0c:	01078793          	addi	a5,a5,16
80000e10:	00078513          	mv	a0,a5
80000e14:	eddff0ef          	jal	ra,80000cf0 <HW_get_8bit_reg>
80000e18:	00050793          	mv	a5,a0
80000e1c:	0027f793          	andi	a5,a5,2
80000e20:	fef407a3          	sb	a5,-17(s0)
/home/arthur/riscv_RV32IM_FreeRTOS/FreeRTOS/Debug/../drivers/CoreUARTapb/core_uart_apb.c:96
        while ( rx_full )
80000e24:	fef44783          	lbu	a5,-17(s0)
80000e28:	fc0794e3          	bnez	a5,80000df0 <UART_init+0xc0>
/home/arthur/riscv_RV32IM_FreeRTOS/FreeRTOS/Debug/../drivers/CoreUARTapb/core_uart_apb.c:106
        }

        /*
         * Clear status of the UART instance.
         */
        this_uart->status = (uint8_t)0;
80000e2c:	fdc42783          	lw	a5,-36(s0)
80000e30:	00078223          	sb	zero,4(a5)
/home/arthur/riscv_RV32IM_FreeRTOS/FreeRTOS/Debug/../drivers/CoreUARTapb/core_uart_apb.c:108
    }
}
80000e34:	00000013          	nop
80000e38:	02c12083          	lw	ra,44(sp)
80000e3c:	02812403          	lw	s0,40(sp)
80000e40:	03010113          	addi	sp,sp,48
80000e44:	00008067          	ret

80000e48 <UART_send>:
UART_send():
/home/arthur/riscv_RV32IM_FreeRTOS/FreeRTOS/Debug/../drivers/CoreUARTapb/core_uart_apb.c:121
(
    UART_instance_t * this_uart,
    const uint8_t * tx_buffer,
    size_t tx_size
)
{
80000e48:	fd010113          	addi	sp,sp,-48
80000e4c:	02112623          	sw	ra,44(sp)
80000e50:	02812423          	sw	s0,40(sp)
80000e54:	03010413          	addi	s0,sp,48
80000e58:	fca42e23          	sw	a0,-36(s0)
80000e5c:	fcb42c23          	sw	a1,-40(s0)
80000e60:	fcc42a23          	sw	a2,-44(s0)
/home/arthur/riscv_RV32IM_FreeRTOS/FreeRTOS/Debug/../drivers/CoreUARTapb/core_uart_apb.c:129

    HAL_ASSERT( this_uart != NULL_INSTANCE )
    HAL_ASSERT( tx_buffer != NULL_BUFFER )
    HAL_ASSERT( tx_size > 0 )
      
    if( (this_uart != NULL_INSTANCE) &&
80000e64:	fdc42783          	lw	a5,-36(s0)
80000e68:	08078063          	beqz	a5,80000ee8 <UART_send+0xa0>
/home/arthur/riscv_RV32IM_FreeRTOS/FreeRTOS/Debug/../drivers/CoreUARTapb/core_uart_apb.c:129 (discriminator 1)
80000e6c:	fd842783          	lw	a5,-40(s0)
80000e70:	06078c63          	beqz	a5,80000ee8 <UART_send+0xa0>
/home/arthur/riscv_RV32IM_FreeRTOS/FreeRTOS/Debug/../drivers/CoreUARTapb/core_uart_apb.c:130
        (tx_buffer != NULL_BUFFER)   &&
80000e74:	fd442783          	lw	a5,-44(s0)
80000e78:	06078863          	beqz	a5,80000ee8 <UART_send+0xa0>
/home/arthur/riscv_RV32IM_FreeRTOS/FreeRTOS/Debug/../drivers/CoreUARTapb/core_uart_apb.c:133
        (tx_size > (size_t)0) )
    {
        for ( char_idx = (size_t)0; char_idx < tx_size; char_idx++ )
80000e7c:	fe042623          	sw	zero,-20(s0)
80000e80:	05c0006f          	j	80000edc <UART_send+0x94>
/home/arthur/riscv_RV32IM_FreeRTOS/FreeRTOS/Debug/../drivers/CoreUARTapb/core_uart_apb.c:137 (discriminator 1)
        {
            /* Wait for UART to become ready to transmit. */
            do {
                tx_ready = HAL_get_8bit_reg( this_uart->base_address, STATUS ) &
80000e84:	fdc42783          	lw	a5,-36(s0)
80000e88:	0007a783          	lw	a5,0(a5)
80000e8c:	01078793          	addi	a5,a5,16
80000e90:	00078513          	mv	a0,a5
80000e94:	e5dff0ef          	jal	ra,80000cf0 <HW_get_8bit_reg>
80000e98:	00050793          	mv	a5,a0
80000e9c:	0017f793          	andi	a5,a5,1
80000ea0:	fef405a3          	sb	a5,-21(s0)
/home/arthur/riscv_RV32IM_FreeRTOS/FreeRTOS/Debug/../drivers/CoreUARTapb/core_uart_apb.c:139 (discriminator 1)
                                                              STATUS_TXRDY_MASK;
            } while ( !tx_ready );
80000ea4:	feb44783          	lbu	a5,-21(s0)
80000ea8:	fc078ee3          	beqz	a5,80000e84 <UART_send+0x3c>
/home/arthur/riscv_RV32IM_FreeRTOS/FreeRTOS/Debug/../drivers/CoreUARTapb/core_uart_apb.c:141 (discriminator 2)
            /* Send next character in the buffer. */
            HAL_set_8bit_reg( this_uart->base_address, TXDATA,
80000eac:	fdc42783          	lw	a5,-36(s0)
80000eb0:	0007a683          	lw	a3,0(a5)
80000eb4:	fd842703          	lw	a4,-40(s0)
80000eb8:	fec42783          	lw	a5,-20(s0)
80000ebc:	00f707b3          	add	a5,a4,a5
80000ec0:	0007c783          	lbu	a5,0(a5)
80000ec4:	00078593          	mv	a1,a5
80000ec8:	00068513          	mv	a0,a3
80000ecc:	e1dff0ef          	jal	ra,80000ce8 <HW_set_8bit_reg>
/home/arthur/riscv_RV32IM_FreeRTOS/FreeRTOS/Debug/../drivers/CoreUARTapb/core_uart_apb.c:133 (discriminator 2)
        for ( char_idx = (size_t)0; char_idx < tx_size; char_idx++ )
80000ed0:	fec42783          	lw	a5,-20(s0)
80000ed4:	00178793          	addi	a5,a5,1
80000ed8:	fef42623          	sw	a5,-20(s0)
/home/arthur/riscv_RV32IM_FreeRTOS/FreeRTOS/Debug/../drivers/CoreUARTapb/core_uart_apb.c:133 (discriminator 1)
80000edc:	fec42703          	lw	a4,-20(s0)
80000ee0:	fd442783          	lw	a5,-44(s0)
80000ee4:	faf760e3          	bltu	a4,a5,80000e84 <UART_send+0x3c>
/home/arthur/riscv_RV32IM_FreeRTOS/FreeRTOS/Debug/../drivers/CoreUARTapb/core_uart_apb.c:145
                              (uint_fast8_t)tx_buffer[char_idx] );
        }
    }
}
80000ee8:	00000013          	nop
80000eec:	02c12083          	lw	ra,44(sp)
80000ef0:	02812403          	lw	s0,40(sp)
80000ef4:	03010113          	addi	sp,sp,48
80000ef8:	00008067          	ret

80000efc <UART_polled_tx_string>:
UART_polled_tx_string():
/home/arthur/riscv_RV32IM_FreeRTOS/FreeRTOS/Debug/../drivers/CoreUARTapb/core_uart_apb.c:239
UART_polled_tx_string
( 
    UART_instance_t * this_uart, 
    const uint8_t * p_sz_string
)
{
80000efc:	fd010113          	addi	sp,sp,-48
80000f00:	02112623          	sw	ra,44(sp)
80000f04:	02812423          	sw	s0,40(sp)
80000f08:	03010413          	addi	s0,sp,48
80000f0c:	fca42e23          	sw	a0,-36(s0)
80000f10:	fcb42c23          	sw	a1,-40(s0)
/home/arthur/riscv_RV32IM_FreeRTOS/FreeRTOS/Debug/../drivers/CoreUARTapb/core_uart_apb.c:246
    uint8_t tx_ready;

    HAL_ASSERT( this_uart != NULL_INSTANCE )
    HAL_ASSERT( p_sz_string != NULL_BUFFER )
    
    if( ( this_uart != NULL_INSTANCE ) && ( p_sz_string != NULL_BUFFER ) )
80000f14:	fdc42783          	lw	a5,-36(s0)
80000f18:	08078063          	beqz	a5,80000f98 <UART_polled_tx_string+0x9c>
/home/arthur/riscv_RV32IM_FreeRTOS/FreeRTOS/Debug/../drivers/CoreUARTapb/core_uart_apb.c:246 (discriminator 1)
80000f1c:	fd842783          	lw	a5,-40(s0)
80000f20:	06078c63          	beqz	a5,80000f98 <UART_polled_tx_string+0x9c>
/home/arthur/riscv_RV32IM_FreeRTOS/FreeRTOS/Debug/../drivers/CoreUARTapb/core_uart_apb.c:248
    {
        char_idx = 0U;
80000f24:	fe042623          	sw	zero,-20(s0)
/home/arthur/riscv_RV32IM_FreeRTOS/FreeRTOS/Debug/../drivers/CoreUARTapb/core_uart_apb.c:249
        while( 0U != p_sz_string[char_idx] )
80000f28:	05c0006f          	j	80000f84 <UART_polled_tx_string+0x88>
/home/arthur/riscv_RV32IM_FreeRTOS/FreeRTOS/Debug/../drivers/CoreUARTapb/core_uart_apb.c:253 (discriminator 1)
        {
            /* Wait for UART to become ready to transmit. */
            do {
                tx_ready = HAL_get_8bit_reg( this_uart->base_address, STATUS ) &
80000f2c:	fdc42783          	lw	a5,-36(s0)
80000f30:	0007a783          	lw	a5,0(a5)
80000f34:	01078793          	addi	a5,a5,16
80000f38:	00078513          	mv	a0,a5
80000f3c:	db5ff0ef          	jal	ra,80000cf0 <HW_get_8bit_reg>
80000f40:	00050793          	mv	a5,a0
80000f44:	0017f793          	andi	a5,a5,1
80000f48:	fef405a3          	sb	a5,-21(s0)
/home/arthur/riscv_RV32IM_FreeRTOS/FreeRTOS/Debug/../drivers/CoreUARTapb/core_uart_apb.c:255 (discriminator 1)
                                                              STATUS_TXRDY_MASK;
            } while ( !tx_ready );
80000f4c:	feb44783          	lbu	a5,-21(s0)
80000f50:	fc078ee3          	beqz	a5,80000f2c <UART_polled_tx_string+0x30>
/home/arthur/riscv_RV32IM_FreeRTOS/FreeRTOS/Debug/../drivers/CoreUARTapb/core_uart_apb.c:257
            /* Send next character in the buffer. */
            HAL_set_8bit_reg( this_uart->base_address, TXDATA,
80000f54:	fdc42783          	lw	a5,-36(s0)
80000f58:	0007a683          	lw	a3,0(a5)
80000f5c:	fd842703          	lw	a4,-40(s0)
80000f60:	fec42783          	lw	a5,-20(s0)
80000f64:	00f707b3          	add	a5,a4,a5
80000f68:	0007c783          	lbu	a5,0(a5)
80000f6c:	00078593          	mv	a1,a5
80000f70:	00068513          	mv	a0,a3
80000f74:	d75ff0ef          	jal	ra,80000ce8 <HW_set_8bit_reg>
/home/arthur/riscv_RV32IM_FreeRTOS/FreeRTOS/Debug/../drivers/CoreUARTapb/core_uart_apb.c:259
                              (uint_fast8_t)p_sz_string[char_idx] );
            char_idx++;
80000f78:	fec42783          	lw	a5,-20(s0)
80000f7c:	00178793          	addi	a5,a5,1
80000f80:	fef42623          	sw	a5,-20(s0)
/home/arthur/riscv_RV32IM_FreeRTOS/FreeRTOS/Debug/../drivers/CoreUARTapb/core_uart_apb.c:249
        while( 0U != p_sz_string[char_idx] )
80000f84:	fd842703          	lw	a4,-40(s0)
80000f88:	fec42783          	lw	a5,-20(s0)
80000f8c:	00f707b3          	add	a5,a4,a5
80000f90:	0007c783          	lbu	a5,0(a5)
80000f94:	f8079ce3          	bnez	a5,80000f2c <UART_polled_tx_string+0x30>
/home/arthur/riscv_RV32IM_FreeRTOS/FreeRTOS/Debug/../drivers/CoreUARTapb/core_uart_apb.c:262
        }
    }
}
80000f98:	00000013          	nop
80000f9c:	02c12083          	lw	ra,44(sp)
80000fa0:	02812403          	lw	s0,40(sp)
80000fa4:	03010113          	addi	sp,sp,48
80000fa8:	00008067          	ret

80000fac <pvPortMalloc>:
pvPortMalloc():
/home/arthur/riscv_RV32IM_FreeRTOS/FreeRTOS/Debug/../FreeRTOS/portable/MemMang/heap_2.c:151
}
/*-----------------------------------------------------------*/


void *pvPortMalloc( size_t xWantedSize )
{
80000fac:	fc010113          	addi	sp,sp,-64
80000fb0:	02112e23          	sw	ra,60(sp)
80000fb4:	02812c23          	sw	s0,56(sp)
80000fb8:	04010413          	addi	s0,sp,64
80000fbc:	fca42623          	sw	a0,-52(s0)
/home/arthur/riscv_RV32IM_FreeRTOS/FreeRTOS/Debug/../FreeRTOS/portable/MemMang/heap_2.c:154
BlockLink_t *pxBlock, *pxPreviousBlock, *pxNewBlockLink;
static BaseType_t xHeapHasBeenInitialised = pdFALSE;
void *pvReturn = NULL;
80000fc0:	fe042223          	sw	zero,-28(s0)
/home/arthur/riscv_RV32IM_FreeRTOS/FreeRTOS/Debug/../FreeRTOS/portable/MemMang/heap_2.c:156

	vTaskSuspendAll();
80000fc4:	725000ef          	jal	ra,80001ee8 <vTaskSuspendAll>
/home/arthur/riscv_RV32IM_FreeRTOS/FreeRTOS/Debug/../FreeRTOS/portable/MemMang/heap_2.c:160
	{
		/* If this is the first call to malloc then the heap will require
		initialisation to setup the list of free blocks. */
		if( xHeapHasBeenInitialised == pdFALSE )
80000fc8:	9281a783          	lw	a5,-1752(gp) # 80002cf8 <xHeapHasBeenInitialised.0>
80000fcc:	00079863          	bnez	a5,80000fdc <pvPortMalloc+0x30>
/home/arthur/riscv_RV32IM_FreeRTOS/FreeRTOS/Debug/../FreeRTOS/portable/MemMang/heap_2.c:162
		{
			prvHeapInit();
80000fd0:	288000ef          	jal	ra,80001258 <prvHeapInit>
/home/arthur/riscv_RV32IM_FreeRTOS/FreeRTOS/Debug/../FreeRTOS/portable/MemMang/heap_2.c:163
			xHeapHasBeenInitialised = pdTRUE;
80000fd4:	00100713          	li	a4,1
80000fd8:	92e1a423          	sw	a4,-1752(gp) # 80002cf8 <xHeapHasBeenInitialised.0>
/home/arthur/riscv_RV32IM_FreeRTOS/FreeRTOS/Debug/../FreeRTOS/portable/MemMang/heap_2.c:168
		}

		/* The wanted size is increased so it can contain a BlockLink_t
		structure in addition to the requested amount of bytes. */
		if( xWantedSize > 0 )
80000fdc:	fcc42783          	lw	a5,-52(s0)
80000fe0:	02078a63          	beqz	a5,80001014 <pvPortMalloc+0x68>
/home/arthur/riscv_RV32IM_FreeRTOS/FreeRTOS/Debug/../FreeRTOS/portable/MemMang/heap_2.c:170
		{
			xWantedSize += heapSTRUCT_SIZE;
80000fe4:	00800793          	li	a5,8
80000fe8:	00078713          	mv	a4,a5
80000fec:	fcc42783          	lw	a5,-52(s0)
80000ff0:	00e787b3          	add	a5,a5,a4
80000ff4:	fcf42623          	sw	a5,-52(s0)
/home/arthur/riscv_RV32IM_FreeRTOS/FreeRTOS/Debug/../FreeRTOS/portable/MemMang/heap_2.c:173

			/* Ensure that blocks are always aligned to the required number of bytes. */
			if( ( xWantedSize & portBYTE_ALIGNMENT_MASK ) != 0 )
80000ff8:	fcc42783          	lw	a5,-52(s0)
80000ffc:	0037f793          	andi	a5,a5,3
80001000:	00078a63          	beqz	a5,80001014 <pvPortMalloc+0x68>
/home/arthur/riscv_RV32IM_FreeRTOS/FreeRTOS/Debug/../FreeRTOS/portable/MemMang/heap_2.c:176
			{
				/* Byte alignment required. */
				xWantedSize += ( portBYTE_ALIGNMENT - ( xWantedSize & portBYTE_ALIGNMENT_MASK ) );
80001004:	fcc42783          	lw	a5,-52(s0)
80001008:	ffc7f793          	andi	a5,a5,-4
8000100c:	00478793          	addi	a5,a5,4
80001010:	fcf42623          	sw	a5,-52(s0)
/home/arthur/riscv_RV32IM_FreeRTOS/FreeRTOS/Debug/../FreeRTOS/portable/MemMang/heap_2.c:180
			}
		}

		if( ( xWantedSize > 0 ) && ( xWantedSize < configADJUSTED_HEAP_SIZE ) )
80001014:	fcc42783          	lw	a5,-52(s0)
80001018:	14078663          	beqz	a5,80001164 <pvPortMalloc+0x1b8>
/home/arthur/riscv_RV32IM_FreeRTOS/FreeRTOS/Debug/../FreeRTOS/portable/MemMang/heap_2.c:180 (discriminator 1)
8000101c:	fcc42703          	lw	a4,-52(s0)
80001020:	000197b7          	lui	a5,0x19
80001024:	ffb78793          	addi	a5,a5,-5 # 18ffb <HEAP_SIZE+0x8ffb>
80001028:	12e7ee63          	bltu	a5,a4,80001164 <pvPortMalloc+0x1b8>
/home/arthur/riscv_RV32IM_FreeRTOS/FreeRTOS/Debug/../FreeRTOS/portable/MemMang/heap_2.c:184
		{
			/* Blocks are stored in byte order - traverse the list from the start
			(smallest) block until one of adequate size is found. */
			pxPreviousBlock = &xStart;
8000102c:	91818793          	addi	a5,gp,-1768 # 80002ce8 <xStart>
80001030:	fef42423          	sw	a5,-24(s0)
/home/arthur/riscv_RV32IM_FreeRTOS/FreeRTOS/Debug/../FreeRTOS/portable/MemMang/heap_2.c:185
			pxBlock = xStart.pxNextFreeBlock;
80001034:	91818793          	addi	a5,gp,-1768 # 80002ce8 <xStart>
80001038:	0007a783          	lw	a5,0(a5)
8000103c:	fef42623          	sw	a5,-20(s0)
/home/arthur/riscv_RV32IM_FreeRTOS/FreeRTOS/Debug/../FreeRTOS/portable/MemMang/heap_2.c:186
			while( ( pxBlock->xBlockSize < xWantedSize ) && ( pxBlock->pxNextFreeBlock != NULL ) )
80001040:	0180006f          	j	80001058 <pvPortMalloc+0xac>
/home/arthur/riscv_RV32IM_FreeRTOS/FreeRTOS/Debug/../FreeRTOS/portable/MemMang/heap_2.c:188
			{
				pxPreviousBlock = pxBlock;
80001044:	fec42783          	lw	a5,-20(s0)
80001048:	fef42423          	sw	a5,-24(s0)
/home/arthur/riscv_RV32IM_FreeRTOS/FreeRTOS/Debug/../FreeRTOS/portable/MemMang/heap_2.c:189
				pxBlock = pxBlock->pxNextFreeBlock;
8000104c:	fec42783          	lw	a5,-20(s0)
80001050:	0007a783          	lw	a5,0(a5)
80001054:	fef42623          	sw	a5,-20(s0)
/home/arthur/riscv_RV32IM_FreeRTOS/FreeRTOS/Debug/../FreeRTOS/portable/MemMang/heap_2.c:186
			while( ( pxBlock->xBlockSize < xWantedSize ) && ( pxBlock->pxNextFreeBlock != NULL ) )
80001058:	fec42783          	lw	a5,-20(s0)
8000105c:	0047a783          	lw	a5,4(a5)
80001060:	fcc42703          	lw	a4,-52(s0)
80001064:	00e7f863          	bgeu	a5,a4,80001074 <pvPortMalloc+0xc8>
/home/arthur/riscv_RV32IM_FreeRTOS/FreeRTOS/Debug/../FreeRTOS/portable/MemMang/heap_2.c:186 (discriminator 1)
80001068:	fec42783          	lw	a5,-20(s0)
8000106c:	0007a783          	lw	a5,0(a5)
80001070:	fc079ae3          	bnez	a5,80001044 <pvPortMalloc+0x98>
/home/arthur/riscv_RV32IM_FreeRTOS/FreeRTOS/Debug/../FreeRTOS/portable/MemMang/heap_2.c:193
			}

			/* If we found the end marker then a block of adequate size was not found. */
			if( pxBlock != &xEnd )
80001074:	fec42703          	lw	a4,-20(s0)
80001078:	92018793          	addi	a5,gp,-1760 # 80002cf0 <xEnd>
8000107c:	0ef70463          	beq	a4,a5,80001164 <pvPortMalloc+0x1b8>
/home/arthur/riscv_RV32IM_FreeRTOS/FreeRTOS/Debug/../FreeRTOS/portable/MemMang/heap_2.c:197
			{
				/* Return the memory space - jumping over the BlockLink_t structure
				at its start. */
				pvReturn = ( void * ) ( ( ( uint8_t * ) pxPreviousBlock->pxNextFreeBlock ) + heapSTRUCT_SIZE );
80001080:	fe842783          	lw	a5,-24(s0)
80001084:	0007a783          	lw	a5,0(a5)
80001088:	00800713          	li	a4,8
8000108c:	00e787b3          	add	a5,a5,a4
80001090:	fef42223          	sw	a5,-28(s0)
/home/arthur/riscv_RV32IM_FreeRTOS/FreeRTOS/Debug/../FreeRTOS/portable/MemMang/heap_2.c:201

				/* This block is being returned for use so must be taken out of the
				list of free blocks. */
				pxPreviousBlock->pxNextFreeBlock = pxBlock->pxNextFreeBlock;
80001094:	fec42783          	lw	a5,-20(s0)
80001098:	0007a703          	lw	a4,0(a5)
8000109c:	fe842783          	lw	a5,-24(s0)
800010a0:	00e7a023          	sw	a4,0(a5)
/home/arthur/riscv_RV32IM_FreeRTOS/FreeRTOS/Debug/../FreeRTOS/portable/MemMang/heap_2.c:204

				/* If the block is larger than required it can be split into two. */
				if( ( pxBlock->xBlockSize - xWantedSize ) > heapMINIMUM_BLOCK_SIZE )
800010a4:	fec42783          	lw	a5,-20(s0)
800010a8:	0047a703          	lw	a4,4(a5)
800010ac:	fcc42783          	lw	a5,-52(s0)
800010b0:	40f707b3          	sub	a5,a4,a5
800010b4:	00800713          	li	a4,8
800010b8:	00171713          	slli	a4,a4,0x1
800010bc:	08f77663          	bgeu	a4,a5,80001148 <pvPortMalloc+0x19c>
/home/arthur/riscv_RV32IM_FreeRTOS/FreeRTOS/Debug/../FreeRTOS/portable/MemMang/heap_2.c:209
				{
					/* This block is to be split into two.  Create a new block
					following the number of bytes requested. The void cast is
					used to prevent byte alignment warnings from the compiler. */
					pxNewBlockLink = ( void * ) ( ( ( uint8_t * ) pxBlock ) + xWantedSize );
800010c0:	fec42703          	lw	a4,-20(s0)
800010c4:	fcc42783          	lw	a5,-52(s0)
800010c8:	00f707b3          	add	a5,a4,a5
800010cc:	fcf42e23          	sw	a5,-36(s0)
/home/arthur/riscv_RV32IM_FreeRTOS/FreeRTOS/Debug/../FreeRTOS/portable/MemMang/heap_2.c:213

					/* Calculate the sizes of two blocks split from the single
					block. */
					pxNewBlockLink->xBlockSize = pxBlock->xBlockSize - xWantedSize;
800010d0:	fec42783          	lw	a5,-20(s0)
800010d4:	0047a703          	lw	a4,4(a5)
800010d8:	fcc42783          	lw	a5,-52(s0)
800010dc:	40f70733          	sub	a4,a4,a5
800010e0:	fdc42783          	lw	a5,-36(s0)
800010e4:	00e7a223          	sw	a4,4(a5)
/home/arthur/riscv_RV32IM_FreeRTOS/FreeRTOS/Debug/../FreeRTOS/portable/MemMang/heap_2.c:214
					pxBlock->xBlockSize = xWantedSize;
800010e8:	fec42783          	lw	a5,-20(s0)
800010ec:	fcc42703          	lw	a4,-52(s0)
800010f0:	00e7a223          	sw	a4,4(a5)
/home/arthur/riscv_RV32IM_FreeRTOS/FreeRTOS/Debug/../FreeRTOS/portable/MemMang/heap_2.c:217

					/* Insert the new block into the list of free blocks. */
					prvInsertBlockIntoFreeList( ( pxNewBlockLink ) );
800010f4:	fdc42783          	lw	a5,-36(s0)
800010f8:	0047a783          	lw	a5,4(a5)
800010fc:	fcf42c23          	sw	a5,-40(s0)
80001100:	91818793          	addi	a5,gp,-1768 # 80002ce8 <xStart>
80001104:	fef42023          	sw	a5,-32(s0)
80001108:	0100006f          	j	80001118 <pvPortMalloc+0x16c>
/home/arthur/riscv_RV32IM_FreeRTOS/FreeRTOS/Debug/../FreeRTOS/portable/MemMang/heap_2.c:217 (discriminator 3)
8000110c:	fe042783          	lw	a5,-32(s0)
80001110:	0007a783          	lw	a5,0(a5)
80001114:	fef42023          	sw	a5,-32(s0)
/home/arthur/riscv_RV32IM_FreeRTOS/FreeRTOS/Debug/../FreeRTOS/portable/MemMang/heap_2.c:217 (discriminator 1)
80001118:	fe042783          	lw	a5,-32(s0)
8000111c:	0007a783          	lw	a5,0(a5)
80001120:	0047a783          	lw	a5,4(a5)
80001124:	fd842703          	lw	a4,-40(s0)
80001128:	fee7e2e3          	bltu	a5,a4,8000110c <pvPortMalloc+0x160>
/home/arthur/riscv_RV32IM_FreeRTOS/FreeRTOS/Debug/../FreeRTOS/portable/MemMang/heap_2.c:217 (discriminator 4)
8000112c:	fe042783          	lw	a5,-32(s0)
80001130:	0007a703          	lw	a4,0(a5)
80001134:	fdc42783          	lw	a5,-36(s0)
80001138:	00e7a023          	sw	a4,0(a5)
8000113c:	fe042783          	lw	a5,-32(s0)
80001140:	fdc42703          	lw	a4,-36(s0)
80001144:	00e7a023          	sw	a4,0(a5)
/home/arthur/riscv_RV32IM_FreeRTOS/FreeRTOS/Debug/../FreeRTOS/portable/MemMang/heap_2.c:220
				}

				xFreeBytesRemaining -= pxBlock->xBlockSize;
80001148:	800037b7          	lui	a5,0x80003
8000114c:	bd07a703          	lw	a4,-1072(a5) # 80002bd0 <__stack_top+0xfffc6dc0>
80001150:	fec42783          	lw	a5,-20(s0)
80001154:	0047a783          	lw	a5,4(a5)
80001158:	40f70733          	sub	a4,a4,a5
8000115c:	800037b7          	lui	a5,0x80003
80001160:	bce7a823          	sw	a4,-1072(a5) # 80002bd0 <__stack_top+0xfffc6dc0>
/home/arthur/riscv_RV32IM_FreeRTOS/FreeRTOS/Debug/../FreeRTOS/portable/MemMang/heap_2.c:226
			}
		}

		traceMALLOC( pvReturn, xWantedSize );
	}
	( void ) xTaskResumeAll();
80001164:	5ad000ef          	jal	ra,80001f10 <xTaskResumeAll>
/home/arthur/riscv_RV32IM_FreeRTOS/FreeRTOS/Debug/../FreeRTOS/portable/MemMang/heap_2.c:230

	#if( configUSE_MALLOC_FAILED_HOOK == 1 )
	{
		if( pvReturn == NULL )
80001168:	fe442783          	lw	a5,-28(s0)
8000116c:	00079463          	bnez	a5,80001174 <pvPortMalloc+0x1c8>
/home/arthur/riscv_RV32IM_FreeRTOS/FreeRTOS/Debug/../FreeRTOS/portable/MemMang/heap_2.c:233
		{
			extern void vApplicationMallocFailedHook( void );
			vApplicationMallocFailedHook();
80001170:	029010ef          	jal	ra,80002998 <vApplicationMallocFailedHook>
/home/arthur/riscv_RV32IM_FreeRTOS/FreeRTOS/Debug/../FreeRTOS/portable/MemMang/heap_2.c:238
		}
	}
	#endif

	return pvReturn;
80001174:	fe442783          	lw	a5,-28(s0)
/home/arthur/riscv_RV32IM_FreeRTOS/FreeRTOS/Debug/../FreeRTOS/portable/MemMang/heap_2.c:239
}
80001178:	00078513          	mv	a0,a5
8000117c:	03c12083          	lw	ra,60(sp)
80001180:	03812403          	lw	s0,56(sp)
80001184:	04010113          	addi	sp,sp,64
80001188:	00008067          	ret

8000118c <vPortFree>:
vPortFree():
/home/arthur/riscv_RV32IM_FreeRTOS/FreeRTOS/Debug/../FreeRTOS/portable/MemMang/heap_2.c:243
/*-----------------------------------------------------------*/

void vPortFree( void *pv )
{
8000118c:	fd010113          	addi	sp,sp,-48
80001190:	02112623          	sw	ra,44(sp)
80001194:	02812423          	sw	s0,40(sp)
80001198:	03010413          	addi	s0,sp,48
8000119c:	fca42e23          	sw	a0,-36(s0)
/home/arthur/riscv_RV32IM_FreeRTOS/FreeRTOS/Debug/../FreeRTOS/portable/MemMang/heap_2.c:244
uint8_t *puc = ( uint8_t * ) pv;
800011a0:	fdc42783          	lw	a5,-36(s0)
800011a4:	fef42423          	sw	a5,-24(s0)
/home/arthur/riscv_RV32IM_FreeRTOS/FreeRTOS/Debug/../FreeRTOS/portable/MemMang/heap_2.c:247
BlockLink_t *pxLink;

	if( pv != NULL )
800011a8:	fdc42783          	lw	a5,-36(s0)
800011ac:	08078c63          	beqz	a5,80001244 <vPortFree+0xb8>
/home/arthur/riscv_RV32IM_FreeRTOS/FreeRTOS/Debug/../FreeRTOS/portable/MemMang/heap_2.c:251
	{
		/* The memory being freed will have an BlockLink_t structure immediately
		before it. */
		puc -= heapSTRUCT_SIZE;
800011b0:	00800793          	li	a5,8
800011b4:	40f007b3          	neg	a5,a5
800011b8:	fe842703          	lw	a4,-24(s0)
800011bc:	00f707b3          	add	a5,a4,a5
800011c0:	fef42423          	sw	a5,-24(s0)
/home/arthur/riscv_RV32IM_FreeRTOS/FreeRTOS/Debug/../FreeRTOS/portable/MemMang/heap_2.c:255

		/* This unexpected casting is to keep some compilers from issuing
		byte alignment warnings. */
		pxLink = ( void * ) puc;
800011c4:	fe842783          	lw	a5,-24(s0)
800011c8:	fef42223          	sw	a5,-28(s0)
/home/arthur/riscv_RV32IM_FreeRTOS/FreeRTOS/Debug/../FreeRTOS/portable/MemMang/heap_2.c:257

		vTaskSuspendAll();
800011cc:	51d000ef          	jal	ra,80001ee8 <vTaskSuspendAll>
/home/arthur/riscv_RV32IM_FreeRTOS/FreeRTOS/Debug/../FreeRTOS/portable/MemMang/heap_2.c:260
		{
			/* Add this block to the list of free blocks. */
			prvInsertBlockIntoFreeList( ( ( BlockLink_t * ) pxLink ) );
800011d0:	fe442783          	lw	a5,-28(s0)
800011d4:	0047a783          	lw	a5,4(a5)
800011d8:	fef42023          	sw	a5,-32(s0)
800011dc:	91818793          	addi	a5,gp,-1768 # 80002ce8 <xStart>
800011e0:	fef42623          	sw	a5,-20(s0)
800011e4:	0100006f          	j	800011f4 <vPortFree+0x68>
/home/arthur/riscv_RV32IM_FreeRTOS/FreeRTOS/Debug/../FreeRTOS/portable/MemMang/heap_2.c:260 (discriminator 3)
800011e8:	fec42783          	lw	a5,-20(s0)
800011ec:	0007a783          	lw	a5,0(a5)
800011f0:	fef42623          	sw	a5,-20(s0)
/home/arthur/riscv_RV32IM_FreeRTOS/FreeRTOS/Debug/../FreeRTOS/portable/MemMang/heap_2.c:260 (discriminator 1)
800011f4:	fec42783          	lw	a5,-20(s0)
800011f8:	0007a783          	lw	a5,0(a5)
800011fc:	0047a783          	lw	a5,4(a5)
80001200:	fe042703          	lw	a4,-32(s0)
80001204:	fee7e2e3          	bltu	a5,a4,800011e8 <vPortFree+0x5c>
/home/arthur/riscv_RV32IM_FreeRTOS/FreeRTOS/Debug/../FreeRTOS/portable/MemMang/heap_2.c:260 (discriminator 4)
80001208:	fec42783          	lw	a5,-20(s0)
8000120c:	0007a703          	lw	a4,0(a5)
80001210:	fe442783          	lw	a5,-28(s0)
80001214:	00e7a023          	sw	a4,0(a5)
80001218:	fec42783          	lw	a5,-20(s0)
8000121c:	fe442703          	lw	a4,-28(s0)
80001220:	00e7a023          	sw	a4,0(a5)
/home/arthur/riscv_RV32IM_FreeRTOS/FreeRTOS/Debug/../FreeRTOS/portable/MemMang/heap_2.c:261 (discriminator 4)
			xFreeBytesRemaining += pxLink->xBlockSize;
80001224:	fe442783          	lw	a5,-28(s0)
80001228:	0047a703          	lw	a4,4(a5)
8000122c:	800037b7          	lui	a5,0x80003
80001230:	bd07a783          	lw	a5,-1072(a5) # 80002bd0 <__stack_top+0xfffc6dc0>
80001234:	00f70733          	add	a4,a4,a5
80001238:	800037b7          	lui	a5,0x80003
8000123c:	bce7a823          	sw	a4,-1072(a5) # 80002bd0 <__stack_top+0xfffc6dc0>
/home/arthur/riscv_RV32IM_FreeRTOS/FreeRTOS/Debug/../FreeRTOS/portable/MemMang/heap_2.c:264 (discriminator 4)
			traceFREE( pv, pxLink->xBlockSize );
		}
		( void ) xTaskResumeAll();
80001240:	4d1000ef          	jal	ra,80001f10 <xTaskResumeAll>
/home/arthur/riscv_RV32IM_FreeRTOS/FreeRTOS/Debug/../FreeRTOS/portable/MemMang/heap_2.c:266
	}
}
80001244:	00000013          	nop
80001248:	02c12083          	lw	ra,44(sp)
8000124c:	02812403          	lw	s0,40(sp)
80001250:	03010113          	addi	sp,sp,48
80001254:	00008067          	ret

80001258 <prvHeapInit>:
prvHeapInit():
/home/arthur/riscv_RV32IM_FreeRTOS/FreeRTOS/Debug/../FreeRTOS/portable/MemMang/heap_2.c:282
	/* This just exists to keep the linker quiet. */
}
/*-----------------------------------------------------------*/

static void prvHeapInit( void )
{
80001258:	fe010113          	addi	sp,sp,-32
8000125c:	00812e23          	sw	s0,28(sp)
80001260:	02010413          	addi	s0,sp,32
/home/arthur/riscv_RV32IM_FreeRTOS/FreeRTOS/Debug/../FreeRTOS/portable/MemMang/heap_2.c:287
BlockLink_t *pxFirstFreeBlock;
uint8_t *pucAlignedHeap;

	/* Ensure the heap starts on a correctly aligned boundary. */
	pucAlignedHeap = ( uint8_t * ) ( ( ( portPOINTER_SIZE_TYPE ) &ucHeap[ portBYTE_ALIGNMENT ] ) & ( ~( ( portPOINTER_SIZE_TYPE ) portBYTE_ALIGNMENT_MASK ) ) );
80001264:	800037b7          	lui	a5,0x80003
80001268:	d4478793          	addi	a5,a5,-700 # 80002d44 <__stack_top+0xfffc6f34>
8000126c:	ffc7f793          	andi	a5,a5,-4
80001270:	fef42623          	sw	a5,-20(s0)
/home/arthur/riscv_RV32IM_FreeRTOS/FreeRTOS/Debug/../FreeRTOS/portable/MemMang/heap_2.c:291

	/* xStart is used to hold a pointer to the first item in the list of free
	blocks.  The void cast is used to prevent compiler warnings. */
	xStart.pxNextFreeBlock = ( void * ) pucAlignedHeap;
80001274:	91818793          	addi	a5,gp,-1768 # 80002ce8 <xStart>
80001278:	fec42703          	lw	a4,-20(s0)
8000127c:	00e7a023          	sw	a4,0(a5)
/home/arthur/riscv_RV32IM_FreeRTOS/FreeRTOS/Debug/../FreeRTOS/portable/MemMang/heap_2.c:292
	xStart.xBlockSize = ( size_t ) 0;
80001280:	91818793          	addi	a5,gp,-1768 # 80002ce8 <xStart>
80001284:	0007a223          	sw	zero,4(a5)
/home/arthur/riscv_RV32IM_FreeRTOS/FreeRTOS/Debug/../FreeRTOS/portable/MemMang/heap_2.c:295

	/* xEnd is used to mark the end of the list of free blocks. */
	xEnd.xBlockSize = configADJUSTED_HEAP_SIZE;
80001288:	92018793          	addi	a5,gp,-1760 # 80002cf0 <xEnd>
8000128c:	00019737          	lui	a4,0x19
80001290:	ffc70713          	addi	a4,a4,-4 # 18ffc <HEAP_SIZE+0x8ffc>
80001294:	00e7a223          	sw	a4,4(a5)
/home/arthur/riscv_RV32IM_FreeRTOS/FreeRTOS/Debug/../FreeRTOS/portable/MemMang/heap_2.c:296
	xEnd.pxNextFreeBlock = NULL;
80001298:	92018793          	addi	a5,gp,-1760 # 80002cf0 <xEnd>
8000129c:	0007a023          	sw	zero,0(a5)
/home/arthur/riscv_RV32IM_FreeRTOS/FreeRTOS/Debug/../FreeRTOS/portable/MemMang/heap_2.c:300

	/* To start with there is a single free block that is sized to take up the
	entire heap space. */
	pxFirstFreeBlock = ( void * ) pucAlignedHeap;
800012a0:	fec42783          	lw	a5,-20(s0)
800012a4:	fef42423          	sw	a5,-24(s0)
/home/arthur/riscv_RV32IM_FreeRTOS/FreeRTOS/Debug/../FreeRTOS/portable/MemMang/heap_2.c:301
	pxFirstFreeBlock->xBlockSize = configADJUSTED_HEAP_SIZE;
800012a8:	fe842783          	lw	a5,-24(s0)
800012ac:	00019737          	lui	a4,0x19
800012b0:	ffc70713          	addi	a4,a4,-4 # 18ffc <HEAP_SIZE+0x8ffc>
800012b4:	00e7a223          	sw	a4,4(a5)
/home/arthur/riscv_RV32IM_FreeRTOS/FreeRTOS/Debug/../FreeRTOS/portable/MemMang/heap_2.c:302
	pxFirstFreeBlock->pxNextFreeBlock = &xEnd;
800012b8:	fe842783          	lw	a5,-24(s0)
800012bc:	92018713          	addi	a4,gp,-1760 # 80002cf0 <xEnd>
800012c0:	00e7a023          	sw	a4,0(a5)
/home/arthur/riscv_RV32IM_FreeRTOS/FreeRTOS/Debug/../FreeRTOS/portable/MemMang/heap_2.c:303
}
800012c4:	00000013          	nop
800012c8:	01c12403          	lw	s0,28(sp)
800012cc:	02010113          	addi	sp,sp,32
800012d0:	00008067          	ret

800012d4 <raise_soft_interrupt>:
raise_soft_interrupt():
/home/arthur/riscv_RV32IM_FreeRTOS/FreeRTOS/Debug/../riscv_hal/riscv_plic.h:227
/*==============================================================================
 * The function raise_soft_interrupt() raises a synchronous software interrupt by
 * writing into the MSIP register.
 */
static inline void raise_soft_interrupt()
{
800012d4:	fe010113          	addi	sp,sp,-32
800012d8:	00812e23          	sw	s0,28(sp)
800012dc:	02010413          	addi	s0,sp,32
/home/arthur/riscv_RV32IM_FreeRTOS/FreeRTOS/Debug/../riscv_hal/riscv_plic.h:228
    unsigned long hart_id = read_csr(mhartid);
800012e0:	f14027f3          	csrr	a5,mhartid
800012e4:	fef42623          	sw	a5,-20(s0)
800012e8:	fec42783          	lw	a5,-20(s0)
800012ec:	fef42423          	sw	a5,-24(s0)
/home/arthur/riscv_RV32IM_FreeRTOS/FreeRTOS/Debug/../riscv_hal/riscv_plic.h:231

    /*You need to make sure that the global interrupt is enabled*/
    set_csr(mie, MIP_MSIP);       /*Enable software interrupt bit */
800012f0:	304467f3          	csrrsi	a5,mie,8
800012f4:	fef42223          	sw	a5,-28(s0)
/home/arthur/riscv_RV32IM_FreeRTOS/FreeRTOS/Debug/../riscv_hal/riscv_plic.h:232
    PRCI->MSIP[hart_id] = 0x01;   /*raise soft interrupt for hart0*/
800012f8:	44000737          	lui	a4,0x44000
800012fc:	fe842783          	lw	a5,-24(s0)
80001300:	00279793          	slli	a5,a5,0x2
80001304:	00f707b3          	add	a5,a4,a5
80001308:	00100713          	li	a4,1
8000130c:	00e7a023          	sw	a4,0(a5)
/home/arthur/riscv_RV32IM_FreeRTOS/FreeRTOS/Debug/../riscv_hal/riscv_plic.h:233
}
80001310:	00000013          	nop
80001314:	01c12403          	lw	s0,28(sp)
80001318:	02010113          	addi	sp,sp,32
8000131c:	00008067          	ret

80001320 <vPortEnterCritical>:
vPortEnterCritical():
/home/arthur/riscv_RV32IM_FreeRTOS/FreeRTOS/Debug/../FreeRTOS/portable/GCC/RISCV/port.c:132
 * Used to catch tasks that attempt to return from their implementing function.
 */
static void prvTaskExitError( void );

void vPortEnterCritical( void )
{
80001320:	ff010113          	addi	sp,sp,-16
80001324:	00812623          	sw	s0,12(sp)
80001328:	01010413          	addi	s0,sp,16
/home/arthur/riscv_RV32IM_FreeRTOS/FreeRTOS/Debug/../FreeRTOS/portable/GCC/RISCV/port.c:133
	portDISABLE_INTERRUPTS();
8000132c:	30047073          	csrci	mstatus,8
/home/arthur/riscv_RV32IM_FreeRTOS/FreeRTOS/Debug/../FreeRTOS/portable/GCC/RISCV/port.c:134
	uxCriticalNesting++;
80001330:	800037b7          	lui	a5,0x80003
80001334:	bd47a783          	lw	a5,-1068(a5) # 80002bd4 <__stack_top+0xfffc6dc4>
80001338:	00178713          	addi	a4,a5,1
8000133c:	800037b7          	lui	a5,0x80003
80001340:	bce7aa23          	sw	a4,-1068(a5) # 80002bd4 <__stack_top+0xfffc6dc4>
/home/arthur/riscv_RV32IM_FreeRTOS/FreeRTOS/Debug/../FreeRTOS/portable/GCC/RISCV/port.c:135
}
80001344:	00000013          	nop
80001348:	00c12403          	lw	s0,12(sp)
8000134c:	01010113          	addi	sp,sp,16
80001350:	00008067          	ret

80001354 <vPortExitCritical>:
vPortExitCritical():
/home/arthur/riscv_RV32IM_FreeRTOS/FreeRTOS/Debug/../FreeRTOS/portable/GCC/RISCV/port.c:139
/*-----------------------------------------------------------*/

void vPortExitCritical( void )
{
80001354:	ff010113          	addi	sp,sp,-16
80001358:	00812623          	sw	s0,12(sp)
8000135c:	01010413          	addi	s0,sp,16
/home/arthur/riscv_RV32IM_FreeRTOS/FreeRTOS/Debug/../FreeRTOS/portable/GCC/RISCV/port.c:140
	uxCriticalNesting--;
80001360:	800037b7          	lui	a5,0x80003
80001364:	bd47a783          	lw	a5,-1068(a5) # 80002bd4 <__stack_top+0xfffc6dc4>
80001368:	fff78713          	addi	a4,a5,-1
8000136c:	800037b7          	lui	a5,0x80003
80001370:	bce7aa23          	sw	a4,-1068(a5) # 80002bd4 <__stack_top+0xfffc6dc4>
/home/arthur/riscv_RV32IM_FreeRTOS/FreeRTOS/Debug/../FreeRTOS/portable/GCC/RISCV/port.c:141
	if( uxCriticalNesting == 0 )
80001374:	800037b7          	lui	a5,0x80003
80001378:	bd47a783          	lw	a5,-1068(a5) # 80002bd4 <__stack_top+0xfffc6dc4>
8000137c:	00079463          	bnez	a5,80001384 <vPortExitCritical+0x30>
/home/arthur/riscv_RV32IM_FreeRTOS/FreeRTOS/Debug/../FreeRTOS/portable/GCC/RISCV/port.c:143
	{
		portENABLE_INTERRUPTS();
80001380:	30046073          	csrsi	mstatus,8
/home/arthur/riscv_RV32IM_FreeRTOS/FreeRTOS/Debug/../FreeRTOS/portable/GCC/RISCV/port.c:145
	}
}
80001384:	00000013          	nop
80001388:	00c12403          	lw	s0,12(sp)
8000138c:	01010113          	addi	sp,sp,16
80001390:	00008067          	ret

80001394 <prvSetNextTimerInterrupt>:
prvSetNextTimerInterrupt():
/home/arthur/riscv_RV32IM_FreeRTOS/FreeRTOS/Debug/../FreeRTOS/portable/GCC/RISCV/port.c:151
/*-----------------------------------------------------------*/

/* Sets the next timer interrupt
 * Reads previous timer compare register, and adds tickrate */
static void prvSetNextTimerInterrupt(void)
{
80001394:	fe010113          	addi	sp,sp,-32
80001398:	00812e23          	sw	s0,28(sp)
8000139c:	02010413          	addi	s0,sp,32
/home/arthur/riscv_RV32IM_FreeRTOS/FreeRTOS/Debug/../FreeRTOS/portable/GCC/RISCV/port.c:154
	uint64_t time;

	time = mtime->val_low;
800013a0:	800035b7          	lui	a1,0x80003
800013a4:	bd85a583          	lw	a1,-1064(a1) # 80002bd8 <__stack_top+0xfffc6dc8>
800013a8:	0005a583          	lw	a1,0(a1)
800013ac:	feb42423          	sw	a1,-24(s0)
800013b0:	fe042623          	sw	zero,-20(s0)
/home/arthur/riscv_RV32IM_FreeRTOS/FreeRTOS/Debug/../FreeRTOS/portable/GCC/RISCV/port.c:155
	time |= ((uint64_t)mtime->val_high << 32);
800013b4:	800035b7          	lui	a1,0x80003
800013b8:	bd85a583          	lw	a1,-1064(a1) # 80002bd8 <__stack_top+0xfffc6dc8>
800013bc:	0045a583          	lw	a1,4(a1)
800013c0:	00058613          	mv	a2,a1
800013c4:	00000693          	li	a3,0
800013c8:	00061793          	slli	a5,a2,0x0
800013cc:	00000713          	li	a4,0
800013d0:	fe842683          	lw	a3,-24(s0)
800013d4:	00e6e6b3          	or	a3,a3,a4
800013d8:	fed42423          	sw	a3,-24(s0)
800013dc:	fec42683          	lw	a3,-20(s0)
800013e0:	00f6e7b3          	or	a5,a3,a5
800013e4:	fef42623          	sw	a5,-20(s0)
/home/arthur/riscv_RV32IM_FreeRTOS/FreeRTOS/Debug/../FreeRTOS/portable/GCC/RISCV/port.c:157

	time += (configCPU_CLOCK_HZ / configTICK_RATE_HZ);
800013e8:	fe842603          	lw	a2,-24(s0)
800013ec:	fec42683          	lw	a3,-20(s0)
800013f0:	00014537          	lui	a0,0x14
800013f4:	43850513          	addi	a0,a0,1080 # 14438 <HEAP_SIZE+0x4438>
800013f8:	00000593          	li	a1,0
800013fc:	00a60733          	add	a4,a2,a0
80001400:	00070313          	mv	t1,a4
80001404:	00c33333          	sltu	t1,t1,a2
80001408:	00b687b3          	add	a5,a3,a1
8000140c:	00f306b3          	add	a3,t1,a5
80001410:	00068793          	mv	a5,a3
80001414:	fee42423          	sw	a4,-24(s0)
80001418:	fef42623          	sw	a5,-20(s0)
/home/arthur/riscv_RV32IM_FreeRTOS/FreeRTOS/Debug/../FreeRTOS/portable/GCC/RISCV/port.c:159

	mtimecmp->val_low = (uint32_t)(time & 0xFFFFFFFF);
8000141c:	800037b7          	lui	a5,0x80003
80001420:	bdc7a783          	lw	a5,-1060(a5) # 80002bdc <__stack_top+0xfffc6dcc>
80001424:	fe842703          	lw	a4,-24(s0)
80001428:	00e7a023          	sw	a4,0(a5)
/home/arthur/riscv_RV32IM_FreeRTOS/FreeRTOS/Debug/../FreeRTOS/portable/GCC/RISCV/port.c:160
	mtimecmp->val_high = (uint32_t)((time >> 32) & 0xFFFFFFFF);
8000142c:	fec42783          	lw	a5,-20(s0)
80001430:	0007d813          	srli	a6,a5,0x0
80001434:	00000893          	li	a7,0
80001438:	800037b7          	lui	a5,0x80003
8000143c:	bdc7a783          	lw	a5,-1060(a5) # 80002bdc <__stack_top+0xfffc6dcc>
80001440:	00080713          	mv	a4,a6
80001444:	00e7a223          	sw	a4,4(a5)
/home/arthur/riscv_RV32IM_FreeRTOS/FreeRTOS/Debug/../FreeRTOS/portable/GCC/RISCV/port.c:163

	/* Enable timer interrupt */
	__asm volatile("csrs mie,%0"::"r"(0x80));
80001448:	08000793          	li	a5,128
8000144c:	3047a073          	csrs	mie,a5
/home/arthur/riscv_RV32IM_FreeRTOS/FreeRTOS/Debug/../FreeRTOS/portable/GCC/RISCV/port.c:164
}
80001450:	00000013          	nop
80001454:	01c12403          	lw	s0,28(sp)
80001458:	02010113          	addi	sp,sp,32
8000145c:	00008067          	ret

80001460 <vPortSetupTimer>:
vPortSetupTimer():
/home/arthur/riscv_RV32IM_FreeRTOS/FreeRTOS/Debug/../FreeRTOS/portable/GCC/RISCV/port.c:169
/*-----------------------------------------------------------*/

/* Sets and enable the timer interrupt */
void vPortSetupTimer(void)
{
80001460:	fe010113          	addi	sp,sp,-32
80001464:	00812e23          	sw	s0,28(sp)
80001468:	02010413          	addi	s0,sp,32
/home/arthur/riscv_RV32IM_FreeRTOS/FreeRTOS/Debug/../FreeRTOS/portable/GCC/RISCV/port.c:172
	uint64_t time;

	time = mtime->val_low;
8000146c:	800035b7          	lui	a1,0x80003
80001470:	bd85a583          	lw	a1,-1064(a1) # 80002bd8 <__stack_top+0xfffc6dc8>
80001474:	0005a583          	lw	a1,0(a1)
80001478:	feb42423          	sw	a1,-24(s0)
8000147c:	fe042623          	sw	zero,-20(s0)
/home/arthur/riscv_RV32IM_FreeRTOS/FreeRTOS/Debug/../FreeRTOS/portable/GCC/RISCV/port.c:173
	time |= ((uint64_t)mtime->val_high << 32);
80001480:	800035b7          	lui	a1,0x80003
80001484:	bd85a583          	lw	a1,-1064(a1) # 80002bd8 <__stack_top+0xfffc6dc8>
80001488:	0045a583          	lw	a1,4(a1)
8000148c:	00058613          	mv	a2,a1
80001490:	00000693          	li	a3,0
80001494:	00061793          	slli	a5,a2,0x0
80001498:	00000713          	li	a4,0
8000149c:	fe842683          	lw	a3,-24(s0)
800014a0:	00e6e6b3          	or	a3,a3,a4
800014a4:	fed42423          	sw	a3,-24(s0)
800014a8:	fec42683          	lw	a3,-20(s0)
800014ac:	00f6e7b3          	or	a5,a3,a5
800014b0:	fef42623          	sw	a5,-20(s0)
/home/arthur/riscv_RV32IM_FreeRTOS/FreeRTOS/Debug/../FreeRTOS/portable/GCC/RISCV/port.c:175

	time += (configCPU_CLOCK_HZ / configTICK_RATE_HZ);
800014b4:	fe842603          	lw	a2,-24(s0)
800014b8:	fec42683          	lw	a3,-20(s0)
800014bc:	00014537          	lui	a0,0x14
800014c0:	43850513          	addi	a0,a0,1080 # 14438 <HEAP_SIZE+0x4438>
800014c4:	00000593          	li	a1,0
800014c8:	00a60733          	add	a4,a2,a0
800014cc:	00070313          	mv	t1,a4
800014d0:	00c33333          	sltu	t1,t1,a2
800014d4:	00b687b3          	add	a5,a3,a1
800014d8:	00f306b3          	add	a3,t1,a5
800014dc:	00068793          	mv	a5,a3
800014e0:	fee42423          	sw	a4,-24(s0)
800014e4:	fef42623          	sw	a5,-20(s0)
/home/arthur/riscv_RV32IM_FreeRTOS/FreeRTOS/Debug/../FreeRTOS/portable/GCC/RISCV/port.c:177

	mtimecmp->val_low = (uint32_t)(time & 0xFFFFFFFF);
800014e8:	800037b7          	lui	a5,0x80003
800014ec:	bdc7a783          	lw	a5,-1060(a5) # 80002bdc <__stack_top+0xfffc6dcc>
800014f0:	fe842703          	lw	a4,-24(s0)
800014f4:	00e7a023          	sw	a4,0(a5)
/home/arthur/riscv_RV32IM_FreeRTOS/FreeRTOS/Debug/../FreeRTOS/portable/GCC/RISCV/port.c:178
	mtimecmp->val_high = (uint32_t)((time >> 32) & 0xFFFFFFFF);
800014f8:	fec42783          	lw	a5,-20(s0)
800014fc:	0007d813          	srli	a6,a5,0x0
80001500:	00000893          	li	a7,0
80001504:	800037b7          	lui	a5,0x80003
80001508:	bdc7a783          	lw	a5,-1060(a5) # 80002bdc <__stack_top+0xfffc6dcc>
8000150c:	00080713          	mv	a4,a6
80001510:	00e7a223          	sw	a4,4(a5)
/home/arthur/riscv_RV32IM_FreeRTOS/FreeRTOS/Debug/../FreeRTOS/portable/GCC/RISCV/port.c:182


	/* Enable timer interrupt */
	__asm volatile("csrs mie,%0"::"r"(0x80));
80001514:	08000793          	li	a5,128
80001518:	3047a073          	csrs	mie,a5
/home/arthur/riscv_RV32IM_FreeRTOS/FreeRTOS/Debug/../FreeRTOS/portable/GCC/RISCV/port.c:183
}
8000151c:	00000013          	nop
80001520:	01c12403          	lw	s0,28(sp)
80001524:	02010113          	addi	sp,sp,32
80001528:	00008067          	ret

8000152c <prvTaskExitError>:
prvTaskExitError():
/home/arthur/riscv_RV32IM_FreeRTOS/FreeRTOS/Debug/../FreeRTOS/portable/GCC/RISCV/port.c:187
/*-----------------------------------------------------------*/

void prvTaskExitError( void )
{
8000152c:	ff010113          	addi	sp,sp,-16
80001530:	00812623          	sw	s0,12(sp)
80001534:	01010413          	addi	s0,sp,16
/home/arthur/riscv_RV32IM_FreeRTOS/FreeRTOS/Debug/../FreeRTOS/portable/GCC/RISCV/port.c:194
	its caller as there is nothing to return to.  If a task wants to exit it
	should instead call vTaskDelete( NULL ).

	Artificially force an assert() to be triggered if configASSERT() is
	defined, then stop here so application writers can catch the error. */
	configASSERT( uxCriticalNesting == ~0UL );
80001538:	800037b7          	lui	a5,0x80003
8000153c:	bd47a703          	lw	a4,-1068(a5) # 80002bd4 <__stack_top+0xfffc6dc4>
80001540:	fff00793          	li	a5,-1
80001544:	00f70663          	beq	a4,a5,80001550 <prvTaskExitError+0x24>
/home/arthur/riscv_RV32IM_FreeRTOS/FreeRTOS/Debug/../FreeRTOS/portable/GCC/RISCV/port.c:194 (discriminator 1)
80001548:	30047073          	csrci	mstatus,8
8000154c:	0000006f          	j	8000154c <prvTaskExitError+0x20>
/home/arthur/riscv_RV32IM_FreeRTOS/FreeRTOS/Debug/../FreeRTOS/portable/GCC/RISCV/port.c:195
	portDISABLE_INTERRUPTS();
80001550:	30047073          	csrci	mstatus,8
/home/arthur/riscv_RV32IM_FreeRTOS/FreeRTOS/Debug/../FreeRTOS/portable/GCC/RISCV/port.c:196 (discriminator 2)
	for( ;; );
80001554:	0000006f          	j	80001554 <prvTaskExitError+0x28>

80001558 <pxPortInitialiseStack>:
pxPortInitialiseStack():
/home/arthur/riscv_RV32IM_FreeRTOS/FreeRTOS/Debug/../FreeRTOS/portable/GCC/RISCV/port.c:220

/*
 * See header file for description.
 */
StackType_t *pxPortInitialiseStack( StackType_t *pxTopOfStack, TaskFunction_t pxCode, void *pvParameters )
{
80001558:	fe010113          	addi	sp,sp,-32
8000155c:	00812e23          	sw	s0,28(sp)
80001560:	02010413          	addi	s0,sp,32
80001564:	fea42623          	sw	a0,-20(s0)
80001568:	feb42423          	sw	a1,-24(s0)
8000156c:	fec42223          	sw	a2,-28(s0)
/home/arthur/riscv_RV32IM_FreeRTOS/FreeRTOS/Debug/../FreeRTOS/portable/GCC/RISCV/port.c:224
	/* Simulate the stack frame as it would be created by a context switch
	interrupt. */
	register int *tp asm("x3");
	pxTopOfStack--;
80001570:	fec42783          	lw	a5,-20(s0)
80001574:	ffc78793          	addi	a5,a5,-4
80001578:	fef42623          	sw	a5,-20(s0)
/home/arthur/riscv_RV32IM_FreeRTOS/FreeRTOS/Debug/../FreeRTOS/portable/GCC/RISCV/port.c:225
	*pxTopOfStack = (portSTACK_TYPE)pxCode;			/* Start address */
8000157c:	fe842703          	lw	a4,-24(s0)
80001580:	fec42783          	lw	a5,-20(s0)
80001584:	00e7a023          	sw	a4,0(a5)
/home/arthur/riscv_RV32IM_FreeRTOS/FreeRTOS/Debug/../FreeRTOS/portable/GCC/RISCV/port.c:226
	pxTopOfStack -= 22;
80001588:	fec42783          	lw	a5,-20(s0)
8000158c:	fa878793          	addi	a5,a5,-88
80001590:	fef42623          	sw	a5,-20(s0)
/home/arthur/riscv_RV32IM_FreeRTOS/FreeRTOS/Debug/../FreeRTOS/portable/GCC/RISCV/port.c:227
	*pxTopOfStack = (portSTACK_TYPE)pvParameters;	/* Register a0 */
80001594:	fe442703          	lw	a4,-28(s0)
80001598:	fec42783          	lw	a5,-20(s0)
8000159c:	00e7a023          	sw	a4,0(a5)
/home/arthur/riscv_RV32IM_FreeRTOS/FreeRTOS/Debug/../FreeRTOS/portable/GCC/RISCV/port.c:228
	pxTopOfStack -= 6;
800015a0:	fec42783          	lw	a5,-20(s0)
800015a4:	fe878793          	addi	a5,a5,-24
800015a8:	fef42623          	sw	a5,-20(s0)
/home/arthur/riscv_RV32IM_FreeRTOS/FreeRTOS/Debug/../FreeRTOS/portable/GCC/RISCV/port.c:229
	*pxTopOfStack = (portSTACK_TYPE)tp; /* Register thread pointer */
800015ac:	00018793          	mv	a5,gp
800015b0:	00078713          	mv	a4,a5
800015b4:	fec42783          	lw	a5,-20(s0)
800015b8:	00e7a023          	sw	a4,0(a5)
/home/arthur/riscv_RV32IM_FreeRTOS/FreeRTOS/Debug/../FreeRTOS/portable/GCC/RISCV/port.c:230
	pxTopOfStack -= 3;
800015bc:	fec42783          	lw	a5,-20(s0)
800015c0:	ff478793          	addi	a5,a5,-12
800015c4:	fef42623          	sw	a5,-20(s0)
/home/arthur/riscv_RV32IM_FreeRTOS/FreeRTOS/Debug/../FreeRTOS/portable/GCC/RISCV/port.c:231
	*pxTopOfStack = (portSTACK_TYPE)prvTaskExitError; /* Register ra */
800015c8:	800017b7          	lui	a5,0x80001
800015cc:	52c78713          	addi	a4,a5,1324 # 8000152c <__stack_top+0xfffc571c>
800015d0:	fec42783          	lw	a5,-20(s0)
800015d4:	00e7a023          	sw	a4,0(a5)
/home/arthur/riscv_RV32IM_FreeRTOS/FreeRTOS/Debug/../FreeRTOS/portable/GCC/RISCV/port.c:233

	return pxTopOfStack;
800015d8:	fec42783          	lw	a5,-20(s0)
/home/arthur/riscv_RV32IM_FreeRTOS/FreeRTOS/Debug/../FreeRTOS/portable/GCC/RISCV/port.c:234
}
800015dc:	00078513          	mv	a0,a5
800015e0:	01c12403          	lw	s0,28(sp)
800015e4:	02010113          	addi	sp,sp,32
800015e8:	00008067          	ret

800015ec <SysTick_Handler>:
SysTick_Handler():
/home/arthur/riscv_RV32IM_FreeRTOS/FreeRTOS/Debug/../FreeRTOS/portable/GCC/RISCV/port.c:238
/*-----------------------------------------------------------*/

void vPortSysTickHandler( void )
{
800015ec:	ff010113          	addi	sp,sp,-16
800015f0:	00112623          	sw	ra,12(sp)
800015f4:	00812423          	sw	s0,8(sp)
800015f8:	01010413          	addi	s0,sp,16
/home/arthur/riscv_RV32IM_FreeRTOS/FreeRTOS/Debug/../FreeRTOS/portable/GCC/RISCV/port.c:241
	/*Save Context*/
	{
		__asm volatile("lw	t0, pxCurrentTCB");
800015fc:	9301a283          	lw	t0,-1744(gp) # 80002d00 <pxCurrentTCB>
/home/arthur/riscv_RV32IM_FreeRTOS/FreeRTOS/Debug/../FreeRTOS/portable/GCC/RISCV/port.c:242
		__asm volatile("sw	a2, 0x0(t0)");
80001600:	00c2a023          	sw	a2,0(t0)
/home/arthur/riscv_RV32IM_FreeRTOS/FreeRTOS/Debug/../FreeRTOS/portable/GCC/RISCV/port.c:246
	}

	/* Increment the RTOS tick. */
	prvSetNextTimerInterrupt();
80001604:	d91ff0ef          	jal	ra,80001394 <prvSetNextTimerInterrupt>
/home/arthur/riscv_RV32IM_FreeRTOS/FreeRTOS/Debug/../FreeRTOS/portable/GCC/RISCV/port.c:249

	/*Switch task */
	if( xTaskIncrementTick() != pdFALSE )
80001608:	26d000ef          	jal	ra,80002074 <xTaskIncrementTick>
8000160c:	00050793          	mv	a5,a0
80001610:	00078463          	beqz	a5,80001618 <SysTick_Handler+0x2c>
/home/arthur/riscv_RV32IM_FreeRTOS/FreeRTOS/Debug/../FreeRTOS/portable/GCC/RISCV/port.c:251
	{
		vTaskSwitchContext();
80001614:	44d000ef          	jal	ra,80002260 <vTaskSwitchContext>
/home/arthur/riscv_RV32IM_FreeRTOS/FreeRTOS/Debug/../FreeRTOS/portable/GCC/RISCV/port.c:256
	}

	/*Restore Context*/
	{
		__asm volatile("lw	sp, pxCurrentTCB");
80001618:	9301a103          	lw	sp,-1744(gp) # 80002d00 <pxCurrentTCB>
/home/arthur/riscv_RV32IM_FreeRTOS/FreeRTOS/Debug/../FreeRTOS/portable/GCC/RISCV/port.c:257
		__asm volatile("lw	sp, 0x0(sp)");
8000161c:	00012103          	lw	sp,0(sp)
/home/arthur/riscv_RV32IM_FreeRTOS/FreeRTOS/Debug/../FreeRTOS/portable/GCC/RISCV/port.c:259

		__asm volatile("lw	t0, 31 * 4(sp)");
80001620:	07c12283          	lw	t0,124(sp)
/home/arthur/riscv_RV32IM_FreeRTOS/FreeRTOS/Debug/../FreeRTOS/portable/GCC/RISCV/port.c:260
		__asm volatile("csrw	mepc, t0");
80001624:	34129073          	csrw	mepc,t0
/home/arthur/riscv_RV32IM_FreeRTOS/FreeRTOS/Debug/../FreeRTOS/portable/GCC/RISCV/port.c:262

		__asm volatile("lw	x1, 0x0(sp)");
80001628:	00012083          	lw	ra,0(sp)
/home/arthur/riscv_RV32IM_FreeRTOS/FreeRTOS/Debug/../FreeRTOS/portable/GCC/RISCV/port.c:263
		__asm volatile("lw   x4, 3 * 4(sp)");
8000162c:	00c12203          	lw	tp,12(sp)
/home/arthur/riscv_RV32IM_FreeRTOS/FreeRTOS/Debug/../FreeRTOS/portable/GCC/RISCV/port.c:264
		__asm volatile("lw   x5, 4 * 4(sp)");
80001630:	01012283          	lw	t0,16(sp)
/home/arthur/riscv_RV32IM_FreeRTOS/FreeRTOS/Debug/../FreeRTOS/portable/GCC/RISCV/port.c:265
		__asm volatile("lw   x6, 5 * 4(sp)");
80001634:	01412303          	lw	t1,20(sp)
/home/arthur/riscv_RV32IM_FreeRTOS/FreeRTOS/Debug/../FreeRTOS/portable/GCC/RISCV/port.c:266
		__asm volatile("lw   x7, 6 * 4(sp)");
80001638:	01812383          	lw	t2,24(sp)
/home/arthur/riscv_RV32IM_FreeRTOS/FreeRTOS/Debug/../FreeRTOS/portable/GCC/RISCV/port.c:267
		__asm volatile("lw   x8, 7 * 4(sp)");
8000163c:	01c12403          	lw	s0,28(sp)
/home/arthur/riscv_RV32IM_FreeRTOS/FreeRTOS/Debug/../FreeRTOS/portable/GCC/RISCV/port.c:268
		__asm volatile("lw   x9, 8 * 4(sp)");
80001640:	02012483          	lw	s1,32(sp)
/home/arthur/riscv_RV32IM_FreeRTOS/FreeRTOS/Debug/../FreeRTOS/portable/GCC/RISCV/port.c:269
		__asm volatile("lw   x10, 9 * 4(sp)");
80001644:	02412503          	lw	a0,36(sp)
/home/arthur/riscv_RV32IM_FreeRTOS/FreeRTOS/Debug/../FreeRTOS/portable/GCC/RISCV/port.c:270
		__asm volatile("lw   x11, 10 * 4(sp)");
80001648:	02812583          	lw	a1,40(sp)
/home/arthur/riscv_RV32IM_FreeRTOS/FreeRTOS/Debug/../FreeRTOS/portable/GCC/RISCV/port.c:271
		__asm volatile("lw   x12, 11 * 4(sp)");
8000164c:	02c12603          	lw	a2,44(sp)
/home/arthur/riscv_RV32IM_FreeRTOS/FreeRTOS/Debug/../FreeRTOS/portable/GCC/RISCV/port.c:272
		__asm volatile("lw   x13, 12 * 4(sp)");
80001650:	03012683          	lw	a3,48(sp)
/home/arthur/riscv_RV32IM_FreeRTOS/FreeRTOS/Debug/../FreeRTOS/portable/GCC/RISCV/port.c:273
		__asm volatile("lw   x14, 13 * 4(sp)");
80001654:	03412703          	lw	a4,52(sp)
/home/arthur/riscv_RV32IM_FreeRTOS/FreeRTOS/Debug/../FreeRTOS/portable/GCC/RISCV/port.c:274
		__asm volatile("lw   x15, 14 * 4(sp)");
80001658:	03812783          	lw	a5,56(sp)
/home/arthur/riscv_RV32IM_FreeRTOS/FreeRTOS/Debug/../FreeRTOS/portable/GCC/RISCV/port.c:275
		__asm volatile("lw   x16, 15 * 4(sp)");
8000165c:	03c12803          	lw	a6,60(sp)
/home/arthur/riscv_RV32IM_FreeRTOS/FreeRTOS/Debug/../FreeRTOS/portable/GCC/RISCV/port.c:276
		__asm volatile("lw   x17, 16 * 4(sp)");
80001660:	04012883          	lw	a7,64(sp)
/home/arthur/riscv_RV32IM_FreeRTOS/FreeRTOS/Debug/../FreeRTOS/portable/GCC/RISCV/port.c:277
		__asm volatile("lw   x18, 17 * 4(sp)");
80001664:	04412903          	lw	s2,68(sp)
/home/arthur/riscv_RV32IM_FreeRTOS/FreeRTOS/Debug/../FreeRTOS/portable/GCC/RISCV/port.c:278
		__asm volatile("lw   x19, 18 * 4(sp)");
80001668:	04812983          	lw	s3,72(sp)
/home/arthur/riscv_RV32IM_FreeRTOS/FreeRTOS/Debug/../FreeRTOS/portable/GCC/RISCV/port.c:279
		__asm volatile("lw   x20, 19 * 4(sp)");
8000166c:	04c12a03          	lw	s4,76(sp)
/home/arthur/riscv_RV32IM_FreeRTOS/FreeRTOS/Debug/../FreeRTOS/portable/GCC/RISCV/port.c:280
		__asm volatile("lw   x21, 20 * 4(sp)");
80001670:	05012a83          	lw	s5,80(sp)
/home/arthur/riscv_RV32IM_FreeRTOS/FreeRTOS/Debug/../FreeRTOS/portable/GCC/RISCV/port.c:281
		__asm volatile("lw   x22, 21 * 4(sp)");
80001674:	05412b03          	lw	s6,84(sp)
/home/arthur/riscv_RV32IM_FreeRTOS/FreeRTOS/Debug/../FreeRTOS/portable/GCC/RISCV/port.c:282
		__asm volatile("lw   x23, 22 * 4(sp)");
80001678:	05812b83          	lw	s7,88(sp)
/home/arthur/riscv_RV32IM_FreeRTOS/FreeRTOS/Debug/../FreeRTOS/portable/GCC/RISCV/port.c:283
		__asm volatile("lw   x24, 23 * 4(sp)");
8000167c:	05c12c03          	lw	s8,92(sp)
/home/arthur/riscv_RV32IM_FreeRTOS/FreeRTOS/Debug/../FreeRTOS/portable/GCC/RISCV/port.c:284
		__asm volatile("lw   x25, 24 * 4(sp)");
80001680:	06012c83          	lw	s9,96(sp)
/home/arthur/riscv_RV32IM_FreeRTOS/FreeRTOS/Debug/../FreeRTOS/portable/GCC/RISCV/port.c:285
		__asm volatile("lw   x26, 25 * 4(sp)");
80001684:	06412d03          	lw	s10,100(sp)
/home/arthur/riscv_RV32IM_FreeRTOS/FreeRTOS/Debug/../FreeRTOS/portable/GCC/RISCV/port.c:286
		__asm volatile("lw   x27, 26 * 4(sp)");
80001688:	06812d83          	lw	s11,104(sp)
/home/arthur/riscv_RV32IM_FreeRTOS/FreeRTOS/Debug/../FreeRTOS/portable/GCC/RISCV/port.c:287
		__asm volatile("lw   x28, 27 * 4(sp)");
8000168c:	06c12e03          	lw	t3,108(sp)
/home/arthur/riscv_RV32IM_FreeRTOS/FreeRTOS/Debug/../FreeRTOS/portable/GCC/RISCV/port.c:288
		__asm volatile("lw   x29, 28 * 4(sp)");
80001690:	07012e83          	lw	t4,112(sp)
/home/arthur/riscv_RV32IM_FreeRTOS/FreeRTOS/Debug/../FreeRTOS/portable/GCC/RISCV/port.c:289
		__asm volatile("lw   x30, 29 * 4(sp)");
80001694:	07412f03          	lw	t5,116(sp)
/home/arthur/riscv_RV32IM_FreeRTOS/FreeRTOS/Debug/../FreeRTOS/portable/GCC/RISCV/port.c:290
		__asm volatile("lw   x31, 30 * 4(sp)");
80001698:	07812f83          	lw	t6,120(sp)
/home/arthur/riscv_RV32IM_FreeRTOS/FreeRTOS/Debug/../FreeRTOS/portable/GCC/RISCV/port.c:292

		__asm volatile("addi	sp, sp, 4 * 32");
8000169c:	08010113          	addi	sp,sp,128
/home/arthur/riscv_RV32IM_FreeRTOS/FreeRTOS/Debug/../FreeRTOS/portable/GCC/RISCV/port.c:294

		__asm volatile("mret");
800016a0:	30200073          	mret
/home/arthur/riscv_RV32IM_FreeRTOS/FreeRTOS/Debug/../FreeRTOS/portable/GCC/RISCV/port.c:296
	}
}
800016a4:	00000013          	nop
800016a8:	00c12083          	lw	ra,12(sp)
800016ac:	00812403          	lw	s0,8(sp)
800016b0:	01010113          	addi	sp,sp,16
800016b4:	00008067          	ret

800016b8 <xPortStartScheduler>:
xPortStartScheduler():
/home/arthur/riscv_RV32IM_FreeRTOS/FreeRTOS/Debug/../FreeRTOS/portable/GCC/RISCV/port.c:299
uint32_t g_startscheduler = 0;
BaseType_t xPortStartScheduler( void )
{
800016b8:	ff010113          	addi	sp,sp,-16
800016bc:	00112623          	sw	ra,12(sp)
800016c0:	00812423          	sw	s0,8(sp)
800016c4:	01010413          	addi	s0,sp,16
/home/arthur/riscv_RV32IM_FreeRTOS/FreeRTOS/Debug/../FreeRTOS/portable/GCC/RISCV/port.c:300
	vPortSetupTimer();
800016c8:	d99ff0ef          	jal	ra,80001460 <vPortSetupTimer>
/home/arthur/riscv_RV32IM_FreeRTOS/FreeRTOS/Debug/../FreeRTOS/portable/GCC/RISCV/port.c:301
	uxCriticalNesting = 0;
800016cc:	800037b7          	lui	a5,0x80003
800016d0:	bc07aa23          	sw	zero,-1068(a5) # 80002bd4 <__stack_top+0xfffc6dc4>
/home/arthur/riscv_RV32IM_FreeRTOS/FreeRTOS/Debug/../FreeRTOS/portable/GCC/RISCV/port.c:302
	g_startscheduler = 1;
800016d4:	00100713          	li	a4,1
800016d8:	92e1a623          	sw	a4,-1748(gp) # 80002cfc <g_startscheduler>
/home/arthur/riscv_RV32IM_FreeRTOS/FreeRTOS/Debug/../FreeRTOS/portable/GCC/RISCV/port.c:303
	__enable_irq();
800016dc:	ca9fe0ef          	jal	ra,80000384 <__enable_irq>
/home/arthur/riscv_RV32IM_FreeRTOS/FreeRTOS/Debug/../FreeRTOS/portable/GCC/RISCV/port.c:305

	raise_soft_interrupt();
800016e0:	bf5ff0ef          	jal	ra,800012d4 <raise_soft_interrupt>
/home/arthur/riscv_RV32IM_FreeRTOS/FreeRTOS/Debug/../FreeRTOS/portable/GCC/RISCV/port.c:308

	/*Should not get here*/
	return pdFALSE;
800016e4:	00000793          	li	a5,0
/home/arthur/riscv_RV32IM_FreeRTOS/FreeRTOS/Debug/../FreeRTOS/portable/GCC/RISCV/port.c:309
}
800016e8:	00078513          	mv	a0,a5
800016ec:	00c12083          	lw	ra,12(sp)
800016f0:	00812403          	lw	s0,8(sp)
800016f4:	01010113          	addi	sp,sp,16
800016f8:	00008067          	ret

800016fc <Software_IRQHandler>:
Software_IRQHandler():
/home/arthur/riscv_RV32IM_FreeRTOS/FreeRTOS/Debug/../FreeRTOS/portable/GCC/RISCV/port.c:312

void Software_IRQHandler(void)
{
800016fc:	ff010113          	addi	sp,sp,-16
80001700:	00112623          	sw	ra,12(sp)
80001704:	00812423          	sw	s0,8(sp)
80001708:	01010413          	addi	s0,sp,16
/home/arthur/riscv_RV32IM_FreeRTOS/FreeRTOS/Debug/../FreeRTOS/portable/GCC/RISCV/port.c:313
	if(1 == g_startscheduler)
8000170c:	92c1a703          	lw	a4,-1748(gp) # 80002cfc <g_startscheduler>
80001710:	00100793          	li	a5,1
80001714:	00f71863          	bne	a4,a5,80001724 <Software_IRQHandler+0x28>
/home/arthur/riscv_RV32IM_FreeRTOS/FreeRTOS/Debug/../FreeRTOS/portable/GCC/RISCV/port.c:315
	{
		g_startscheduler = 2; //skip the save n switch context first time when scheduler is starting.
80001718:	00200713          	li	a4,2
8000171c:	92e1a623          	sw	a4,-1748(gp) # 80002cfc <g_startscheduler>
80001720:	0100006f          	j	80001730 <Software_IRQHandler+0x34>
/home/arthur/riscv_RV32IM_FreeRTOS/FreeRTOS/Debug/../FreeRTOS/portable/GCC/RISCV/port.c:321
	}
	else
	{
		/*Save Context*/
		{
			__asm volatile("lw	t0, pxCurrentTCB");
80001724:	9301a283          	lw	t0,-1744(gp) # 80002d00 <pxCurrentTCB>
/home/arthur/riscv_RV32IM_FreeRTOS/FreeRTOS/Debug/../FreeRTOS/portable/GCC/RISCV/port.c:322
			__asm volatile("sw	a2, 0x0(t0)");
80001728:	00c2a023          	sw	a2,0(t0)
/home/arthur/riscv_RV32IM_FreeRTOS/FreeRTOS/Debug/../FreeRTOS/portable/GCC/RISCV/port.c:325
		}

		vTaskSwitchContext();
8000172c:	335000ef          	jal	ra,80002260 <vTaskSwitchContext>
/home/arthur/riscv_RV32IM_FreeRTOS/FreeRTOS/Debug/../FreeRTOS/portable/GCC/RISCV/port.c:329
	}

	// Moved by Imperas (was previously causing corruption of a5)
	PRCI->MSIP[0] = 0x00;
80001730:	440007b7          	lui	a5,0x44000
80001734:	0007a023          	sw	zero,0(a5) # 44000000 <RAM_SIZE+0x43f80000>
/home/arthur/riscv_RV32IM_FreeRTOS/FreeRTOS/Debug/../FreeRTOS/portable/GCC/RISCV/port.c:333

	/*Restore Context*/
	{
		__asm volatile("lw	sp, pxCurrentTCB");
80001738:	9301a103          	lw	sp,-1744(gp) # 80002d00 <pxCurrentTCB>
/home/arthur/riscv_RV32IM_FreeRTOS/FreeRTOS/Debug/../FreeRTOS/portable/GCC/RISCV/port.c:334
		__asm volatile("lw	sp, 0x0(sp)");
8000173c:	00012103          	lw	sp,0(sp)
/home/arthur/riscv_RV32IM_FreeRTOS/FreeRTOS/Debug/../FreeRTOS/portable/GCC/RISCV/port.c:336

		__asm volatile("lw	t0, 31 * 4(sp)");
80001740:	07c12283          	lw	t0,124(sp)
/home/arthur/riscv_RV32IM_FreeRTOS/FreeRTOS/Debug/../FreeRTOS/portable/GCC/RISCV/port.c:337
		__asm volatile("csrw	mepc, t0");
80001744:	34129073          	csrw	mepc,t0
/home/arthur/riscv_RV32IM_FreeRTOS/FreeRTOS/Debug/../FreeRTOS/portable/GCC/RISCV/port.c:339

		__asm volatile("lw	x1, 0x0(sp)");
80001748:	00012083          	lw	ra,0(sp)
/home/arthur/riscv_RV32IM_FreeRTOS/FreeRTOS/Debug/../FreeRTOS/portable/GCC/RISCV/port.c:340
		__asm volatile("lw   x4, 3 * 4(sp)");
8000174c:	00c12203          	lw	tp,12(sp)
/home/arthur/riscv_RV32IM_FreeRTOS/FreeRTOS/Debug/../FreeRTOS/portable/GCC/RISCV/port.c:341
		__asm volatile("lw   x5, 4 * 4(sp)");
80001750:	01012283          	lw	t0,16(sp)
/home/arthur/riscv_RV32IM_FreeRTOS/FreeRTOS/Debug/../FreeRTOS/portable/GCC/RISCV/port.c:342
		__asm volatile("lw   x6, 5 * 4(sp)");
80001754:	01412303          	lw	t1,20(sp)
/home/arthur/riscv_RV32IM_FreeRTOS/FreeRTOS/Debug/../FreeRTOS/portable/GCC/RISCV/port.c:343
		__asm volatile("lw   x7, 6 * 4(sp)");
80001758:	01812383          	lw	t2,24(sp)
/home/arthur/riscv_RV32IM_FreeRTOS/FreeRTOS/Debug/../FreeRTOS/portable/GCC/RISCV/port.c:344
		__asm volatile("lw   x8, 7 * 4(sp)");
8000175c:	01c12403          	lw	s0,28(sp)
/home/arthur/riscv_RV32IM_FreeRTOS/FreeRTOS/Debug/../FreeRTOS/portable/GCC/RISCV/port.c:345
		__asm volatile("lw   x9, 8 * 4(sp)");
80001760:	02012483          	lw	s1,32(sp)
/home/arthur/riscv_RV32IM_FreeRTOS/FreeRTOS/Debug/../FreeRTOS/portable/GCC/RISCV/port.c:346
		__asm volatile("lw   x10, 9 * 4(sp)");
80001764:	02412503          	lw	a0,36(sp)
/home/arthur/riscv_RV32IM_FreeRTOS/FreeRTOS/Debug/../FreeRTOS/portable/GCC/RISCV/port.c:347
		__asm volatile("lw   x11, 10 * 4(sp)");
80001768:	02812583          	lw	a1,40(sp)
/home/arthur/riscv_RV32IM_FreeRTOS/FreeRTOS/Debug/../FreeRTOS/portable/GCC/RISCV/port.c:348
		__asm volatile("lw   x12, 11 * 4(sp)");
8000176c:	02c12603          	lw	a2,44(sp)
/home/arthur/riscv_RV32IM_FreeRTOS/FreeRTOS/Debug/../FreeRTOS/portable/GCC/RISCV/port.c:349
		__asm volatile("lw   x13, 12 * 4(sp)");
80001770:	03012683          	lw	a3,48(sp)
/home/arthur/riscv_RV32IM_FreeRTOS/FreeRTOS/Debug/../FreeRTOS/portable/GCC/RISCV/port.c:350
		__asm volatile("lw   x14, 13 * 4(sp)");
80001774:	03412703          	lw	a4,52(sp)
/home/arthur/riscv_RV32IM_FreeRTOS/FreeRTOS/Debug/../FreeRTOS/portable/GCC/RISCV/port.c:351
		__asm volatile("lw   x15, 14 * 4(sp)");
80001778:	03812783          	lw	a5,56(sp)
/home/arthur/riscv_RV32IM_FreeRTOS/FreeRTOS/Debug/../FreeRTOS/portable/GCC/RISCV/port.c:352
		__asm volatile("lw   x16, 15 * 4(sp)");
8000177c:	03c12803          	lw	a6,60(sp)
/home/arthur/riscv_RV32IM_FreeRTOS/FreeRTOS/Debug/../FreeRTOS/portable/GCC/RISCV/port.c:353
		__asm volatile("lw   x17, 16 * 4(sp)");
80001780:	04012883          	lw	a7,64(sp)
/home/arthur/riscv_RV32IM_FreeRTOS/FreeRTOS/Debug/../FreeRTOS/portable/GCC/RISCV/port.c:354
		__asm volatile("lw   x18, 17 * 4(sp)");
80001784:	04412903          	lw	s2,68(sp)
/home/arthur/riscv_RV32IM_FreeRTOS/FreeRTOS/Debug/../FreeRTOS/portable/GCC/RISCV/port.c:355
		__asm volatile("lw   x19, 18 * 4(sp)");
80001788:	04812983          	lw	s3,72(sp)
/home/arthur/riscv_RV32IM_FreeRTOS/FreeRTOS/Debug/../FreeRTOS/portable/GCC/RISCV/port.c:356
		__asm volatile("lw   x20, 19 * 4(sp)");
8000178c:	04c12a03          	lw	s4,76(sp)
/home/arthur/riscv_RV32IM_FreeRTOS/FreeRTOS/Debug/../FreeRTOS/portable/GCC/RISCV/port.c:357
		__asm volatile("lw   x21, 20 * 4(sp)");
80001790:	05012a83          	lw	s5,80(sp)
/home/arthur/riscv_RV32IM_FreeRTOS/FreeRTOS/Debug/../FreeRTOS/portable/GCC/RISCV/port.c:358
		__asm volatile("lw   x22, 21 * 4(sp)");
80001794:	05412b03          	lw	s6,84(sp)
/home/arthur/riscv_RV32IM_FreeRTOS/FreeRTOS/Debug/../FreeRTOS/portable/GCC/RISCV/port.c:359
		__asm volatile("lw   x23, 22 * 4(sp)");
80001798:	05812b83          	lw	s7,88(sp)
/home/arthur/riscv_RV32IM_FreeRTOS/FreeRTOS/Debug/../FreeRTOS/portable/GCC/RISCV/port.c:360
		__asm volatile("lw   x24, 23 * 4(sp)");
8000179c:	05c12c03          	lw	s8,92(sp)
/home/arthur/riscv_RV32IM_FreeRTOS/FreeRTOS/Debug/../FreeRTOS/portable/GCC/RISCV/port.c:361
		__asm volatile("lw   x25, 24 * 4(sp)");
800017a0:	06012c83          	lw	s9,96(sp)
/home/arthur/riscv_RV32IM_FreeRTOS/FreeRTOS/Debug/../FreeRTOS/portable/GCC/RISCV/port.c:362
		__asm volatile("lw   x26, 25 * 4(sp)");
800017a4:	06412d03          	lw	s10,100(sp)
/home/arthur/riscv_RV32IM_FreeRTOS/FreeRTOS/Debug/../FreeRTOS/portable/GCC/RISCV/port.c:363
		__asm volatile("lw   x27, 26 * 4(sp)");
800017a8:	06812d83          	lw	s11,104(sp)
/home/arthur/riscv_RV32IM_FreeRTOS/FreeRTOS/Debug/../FreeRTOS/portable/GCC/RISCV/port.c:364
		__asm volatile("lw   x28, 27 * 4(sp)");
800017ac:	06c12e03          	lw	t3,108(sp)
/home/arthur/riscv_RV32IM_FreeRTOS/FreeRTOS/Debug/../FreeRTOS/portable/GCC/RISCV/port.c:365
		__asm volatile("lw   x29, 28 * 4(sp)");
800017b0:	07012e83          	lw	t4,112(sp)
/home/arthur/riscv_RV32IM_FreeRTOS/FreeRTOS/Debug/../FreeRTOS/portable/GCC/RISCV/port.c:366
		__asm volatile("lw   x30, 29 * 4(sp)");
800017b4:	07412f03          	lw	t5,116(sp)
/home/arthur/riscv_RV32IM_FreeRTOS/FreeRTOS/Debug/../FreeRTOS/portable/GCC/RISCV/port.c:367
		__asm volatile("lw   x31, 30 * 4(sp)");
800017b8:	07812f83          	lw	t6,120(sp)
/home/arthur/riscv_RV32IM_FreeRTOS/FreeRTOS/Debug/../FreeRTOS/portable/GCC/RISCV/port.c:369

		__asm volatile("addi	sp, sp, 4 * 32");
800017bc:	08010113          	addi	sp,sp,128
/home/arthur/riscv_RV32IM_FreeRTOS/FreeRTOS/Debug/../FreeRTOS/portable/GCC/RISCV/port.c:374

	    // Moved by Imperas (causing corruption of a5 at this position)
		//PRCI->MSIP[0] = 0x00;

		__asm volatile("mret");
800017c0:	30200073          	mret
/home/arthur/riscv_RV32IM_FreeRTOS/FreeRTOS/Debug/../FreeRTOS/portable/GCC/RISCV/port.c:376
	}
}
800017c4:	00000013          	nop
800017c8:	00c12083          	lw	ra,12(sp)
800017cc:	00812403          	lw	s0,8(sp)
800017d0:	01010113          	addi	sp,sp,16
800017d4:	00008067          	ret

800017d8 <vPortYield>:
vPortYield():
/home/arthur/riscv_RV32IM_FreeRTOS/FreeRTOS/Debug/../FreeRTOS/portable/GCC/RISCV/port.c:379

void vPortYield( void )
{
800017d8:	ff010113          	addi	sp,sp,-16
800017dc:	00112623          	sw	ra,12(sp)
800017e0:	00812423          	sw	s0,8(sp)
800017e4:	01010413          	addi	s0,sp,16
/home/arthur/riscv_RV32IM_FreeRTOS/FreeRTOS/Debug/../FreeRTOS/portable/GCC/RISCV/port.c:380
	raise_soft_interrupt();
800017e8:	aedff0ef          	jal	ra,800012d4 <raise_soft_interrupt>
/home/arthur/riscv_RV32IM_FreeRTOS/FreeRTOS/Debug/../FreeRTOS/portable/GCC/RISCV/port.c:381
}
800017ec:	00000013          	nop
800017f0:	00c12083          	lw	ra,12(sp)
800017f4:	00812403          	lw	s0,8(sp)
800017f8:	01010113          	addi	sp,sp,16
800017fc:	00008067          	ret

80001800 <vListInitialise>:
vListInitialise():
/home/arthur/riscv_RV32IM_FreeRTOS/FreeRTOS/Debug/../FreeRTOS/list.c:80
/*-----------------------------------------------------------
 * PUBLIC LIST API documented in list.h
 *----------------------------------------------------------*/

void vListInitialise( List_t * const pxList )
{
80001800:	fe010113          	addi	sp,sp,-32
80001804:	00812e23          	sw	s0,28(sp)
80001808:	02010413          	addi	s0,sp,32
8000180c:	fea42623          	sw	a0,-20(s0)
/home/arthur/riscv_RV32IM_FreeRTOS/FreeRTOS/Debug/../FreeRTOS/list.c:84
	/* The list structure contains a list item which is used to mark the
	end of the list.  To initialise the list the list end is inserted
	as the only list entry. */
	pxList->pxIndex = ( ListItem_t * ) &( pxList->xListEnd );			/*lint !e826 !e740 The mini list structure is used as the list end to save RAM.  This is checked and valid. */
80001810:	fec42783          	lw	a5,-20(s0)
80001814:	00878713          	addi	a4,a5,8
80001818:	fec42783          	lw	a5,-20(s0)
8000181c:	00e7a223          	sw	a4,4(a5)
/home/arthur/riscv_RV32IM_FreeRTOS/FreeRTOS/Debug/../FreeRTOS/list.c:88

	/* The list end value is the highest possible value in the list to
	ensure it remains at the end of the list. */
	pxList->xListEnd.xItemValue = portMAX_DELAY;
80001820:	fec42783          	lw	a5,-20(s0)
80001824:	fff00713          	li	a4,-1
80001828:	00e7a423          	sw	a4,8(a5)
/home/arthur/riscv_RV32IM_FreeRTOS/FreeRTOS/Debug/../FreeRTOS/list.c:92

	/* The list end next and previous pointers point to itself so we know
	when the list is empty. */
	pxList->xListEnd.pxNext = ( ListItem_t * ) &( pxList->xListEnd );	/*lint !e826 !e740 The mini list structure is used as the list end to save RAM.  This is checked and valid. */
8000182c:	fec42783          	lw	a5,-20(s0)
80001830:	00878713          	addi	a4,a5,8
80001834:	fec42783          	lw	a5,-20(s0)
80001838:	00e7a623          	sw	a4,12(a5)
/home/arthur/riscv_RV32IM_FreeRTOS/FreeRTOS/Debug/../FreeRTOS/list.c:93
	pxList->xListEnd.pxPrevious = ( ListItem_t * ) &( pxList->xListEnd );/*lint !e826 !e740 The mini list structure is used as the list end to save RAM.  This is checked and valid. */
8000183c:	fec42783          	lw	a5,-20(s0)
80001840:	00878713          	addi	a4,a5,8
80001844:	fec42783          	lw	a5,-20(s0)
80001848:	00e7a823          	sw	a4,16(a5)
/home/arthur/riscv_RV32IM_FreeRTOS/FreeRTOS/Debug/../FreeRTOS/list.c:95

	pxList->uxNumberOfItems = ( UBaseType_t ) 0U;
8000184c:	fec42783          	lw	a5,-20(s0)
80001850:	0007a023          	sw	zero,0(a5)
/home/arthur/riscv_RV32IM_FreeRTOS/FreeRTOS/Debug/../FreeRTOS/list.c:101

	/* Write known values into the list if
	configUSE_LIST_DATA_INTEGRITY_CHECK_BYTES is set to 1. */
	listSET_LIST_INTEGRITY_CHECK_1_VALUE( pxList );
	listSET_LIST_INTEGRITY_CHECK_2_VALUE( pxList );
}
80001854:	00000013          	nop
80001858:	01c12403          	lw	s0,28(sp)
8000185c:	02010113          	addi	sp,sp,32
80001860:	00008067          	ret

80001864 <vListInitialiseItem>:
vListInitialiseItem():
/home/arthur/riscv_RV32IM_FreeRTOS/FreeRTOS/Debug/../FreeRTOS/list.c:105
/*-----------------------------------------------------------*/

void vListInitialiseItem( ListItem_t * const pxItem )
{
80001864:	fe010113          	addi	sp,sp,-32
80001868:	00812e23          	sw	s0,28(sp)
8000186c:	02010413          	addi	s0,sp,32
80001870:	fea42623          	sw	a0,-20(s0)
/home/arthur/riscv_RV32IM_FreeRTOS/FreeRTOS/Debug/../FreeRTOS/list.c:107
	/* Make sure the list item is not recorded as being on a list. */
	pxItem->pvContainer = NULL;
80001874:	fec42783          	lw	a5,-20(s0)
80001878:	0007a823          	sw	zero,16(a5)
/home/arthur/riscv_RV32IM_FreeRTOS/FreeRTOS/Debug/../FreeRTOS/list.c:113

	/* Write known values into the list item if
	configUSE_LIST_DATA_INTEGRITY_CHECK_BYTES is set to 1. */
	listSET_FIRST_LIST_ITEM_INTEGRITY_CHECK_VALUE( pxItem );
	listSET_SECOND_LIST_ITEM_INTEGRITY_CHECK_VALUE( pxItem );
}
8000187c:	00000013          	nop
80001880:	01c12403          	lw	s0,28(sp)
80001884:	02010113          	addi	sp,sp,32
80001888:	00008067          	ret

8000188c <vListInsertEnd>:
vListInsertEnd():
/home/arthur/riscv_RV32IM_FreeRTOS/FreeRTOS/Debug/../FreeRTOS/list.c:117
/*-----------------------------------------------------------*/

void vListInsertEnd( List_t * const pxList, ListItem_t * const pxNewListItem )
{
8000188c:	fd010113          	addi	sp,sp,-48
80001890:	02812623          	sw	s0,44(sp)
80001894:	03010413          	addi	s0,sp,48
80001898:	fca42e23          	sw	a0,-36(s0)
8000189c:	fcb42c23          	sw	a1,-40(s0)
/home/arthur/riscv_RV32IM_FreeRTOS/FreeRTOS/Debug/../FreeRTOS/list.c:118
ListItem_t * const pxIndex = pxList->pxIndex;
800018a0:	fdc42783          	lw	a5,-36(s0)
800018a4:	0047a783          	lw	a5,4(a5)
800018a8:	fef42623          	sw	a5,-20(s0)
/home/arthur/riscv_RV32IM_FreeRTOS/FreeRTOS/Debug/../FreeRTOS/list.c:129
	listTEST_LIST_ITEM_INTEGRITY( pxNewListItem );

	/* Insert a new list item into pxList, but rather than sort the list,
	makes the new list item the last item to be removed by a call to
	listGET_OWNER_OF_NEXT_ENTRY(). */
	pxNewListItem->pxNext = pxIndex;
800018ac:	fd842783          	lw	a5,-40(s0)
800018b0:	fec42703          	lw	a4,-20(s0)
800018b4:	00e7a223          	sw	a4,4(a5)
/home/arthur/riscv_RV32IM_FreeRTOS/FreeRTOS/Debug/../FreeRTOS/list.c:130
	pxNewListItem->pxPrevious = pxIndex->pxPrevious;
800018b8:	fec42783          	lw	a5,-20(s0)
800018bc:	0087a703          	lw	a4,8(a5)
800018c0:	fd842783          	lw	a5,-40(s0)
800018c4:	00e7a423          	sw	a4,8(a5)
/home/arthur/riscv_RV32IM_FreeRTOS/FreeRTOS/Debug/../FreeRTOS/list.c:135

	/* Only used during decision coverage testing. */
	mtCOVERAGE_TEST_DELAY();

	pxIndex->pxPrevious->pxNext = pxNewListItem;
800018c8:	fec42783          	lw	a5,-20(s0)
800018cc:	0087a783          	lw	a5,8(a5)
800018d0:	fd842703          	lw	a4,-40(s0)
800018d4:	00e7a223          	sw	a4,4(a5)
/home/arthur/riscv_RV32IM_FreeRTOS/FreeRTOS/Debug/../FreeRTOS/list.c:136
	pxIndex->pxPrevious = pxNewListItem;
800018d8:	fec42783          	lw	a5,-20(s0)
800018dc:	fd842703          	lw	a4,-40(s0)
800018e0:	00e7a423          	sw	a4,8(a5)
/home/arthur/riscv_RV32IM_FreeRTOS/FreeRTOS/Debug/../FreeRTOS/list.c:139

	/* Remember which list the item is in. */
	pxNewListItem->pvContainer = ( void * ) pxList;
800018e4:	fd842783          	lw	a5,-40(s0)
800018e8:	fdc42703          	lw	a4,-36(s0)
800018ec:	00e7a823          	sw	a4,16(a5)
/home/arthur/riscv_RV32IM_FreeRTOS/FreeRTOS/Debug/../FreeRTOS/list.c:141

	( pxList->uxNumberOfItems )++;
800018f0:	fdc42783          	lw	a5,-36(s0)
800018f4:	0007a783          	lw	a5,0(a5)
800018f8:	00178713          	addi	a4,a5,1
800018fc:	fdc42783          	lw	a5,-36(s0)
80001900:	00e7a023          	sw	a4,0(a5)
/home/arthur/riscv_RV32IM_FreeRTOS/FreeRTOS/Debug/../FreeRTOS/list.c:142
}
80001904:	00000013          	nop
80001908:	02c12403          	lw	s0,44(sp)
8000190c:	03010113          	addi	sp,sp,48
80001910:	00008067          	ret

80001914 <vListInsert>:
vListInsert():
/home/arthur/riscv_RV32IM_FreeRTOS/FreeRTOS/Debug/../FreeRTOS/list.c:146
/*-----------------------------------------------------------*/

void vListInsert( List_t * const pxList, ListItem_t * const pxNewListItem )
{
80001914:	fd010113          	addi	sp,sp,-48
80001918:	02812623          	sw	s0,44(sp)
8000191c:	03010413          	addi	s0,sp,48
80001920:	fca42e23          	sw	a0,-36(s0)
80001924:	fcb42c23          	sw	a1,-40(s0)
/home/arthur/riscv_RV32IM_FreeRTOS/FreeRTOS/Debug/../FreeRTOS/list.c:148
ListItem_t *pxIterator;
const TickType_t xValueOfInsertion = pxNewListItem->xItemValue;
80001928:	fd842783          	lw	a5,-40(s0)
8000192c:	0007a783          	lw	a5,0(a5)
80001930:	fef42423          	sw	a5,-24(s0)
/home/arthur/riscv_RV32IM_FreeRTOS/FreeRTOS/Debug/../FreeRTOS/list.c:164
	new list item should be placed after it.  This ensures that TCB's which are
	stored in ready lists (all of which have the same xItemValue value) get a
	share of the CPU.  However, if the xItemValue is the same as the back marker
	the iteration loop below will not end.  Therefore the value is checked
	first, and the algorithm slightly modified if necessary. */
	if( xValueOfInsertion == portMAX_DELAY )
80001934:	fe842703          	lw	a4,-24(s0)
80001938:	fff00793          	li	a5,-1
8000193c:	00f71a63          	bne	a4,a5,80001950 <vListInsert+0x3c>
/home/arthur/riscv_RV32IM_FreeRTOS/FreeRTOS/Debug/../FreeRTOS/list.c:166
	{
		pxIterator = pxList->xListEnd.pxPrevious;
80001940:	fdc42783          	lw	a5,-36(s0)
80001944:	0107a783          	lw	a5,16(a5)
80001948:	fef42623          	sw	a5,-20(s0)
8000194c:	0340006f          	j	80001980 <vListInsert+0x6c>
/home/arthur/riscv_RV32IM_FreeRTOS/FreeRTOS/Debug/../FreeRTOS/list.c:192
			4) Using a queue or semaphore before it has been initialised or
			   before the scheduler has been started (are interrupts firing
			   before vTaskStartScheduler() has been called?).
		**********************************************************************/

		for( pxIterator = ( ListItem_t * ) &( pxList->xListEnd ); pxIterator->pxNext->xItemValue <= xValueOfInsertion; pxIterator = pxIterator->pxNext ) /*lint !e826 !e740 The mini list structure is used as the list end to save RAM.  This is checked and valid. */
80001950:	fdc42783          	lw	a5,-36(s0)
80001954:	00878793          	addi	a5,a5,8
80001958:	fef42623          	sw	a5,-20(s0)
8000195c:	0100006f          	j	8000196c <vListInsert+0x58>
/home/arthur/riscv_RV32IM_FreeRTOS/FreeRTOS/Debug/../FreeRTOS/list.c:192 (discriminator 3)
80001960:	fec42783          	lw	a5,-20(s0)
80001964:	0047a783          	lw	a5,4(a5)
80001968:	fef42623          	sw	a5,-20(s0)
/home/arthur/riscv_RV32IM_FreeRTOS/FreeRTOS/Debug/../FreeRTOS/list.c:192 (discriminator 1)
8000196c:	fec42783          	lw	a5,-20(s0)
80001970:	0047a783          	lw	a5,4(a5)
80001974:	0007a783          	lw	a5,0(a5)
80001978:	fe842703          	lw	a4,-24(s0)
8000197c:	fef772e3          	bgeu	a4,a5,80001960 <vListInsert+0x4c>
/home/arthur/riscv_RV32IM_FreeRTOS/FreeRTOS/Debug/../FreeRTOS/list.c:199
			/* There is nothing to do here, just iterating to the wanted
			insertion position. */
		}
	}

	pxNewListItem->pxNext = pxIterator->pxNext;
80001980:	fec42783          	lw	a5,-20(s0)
80001984:	0047a703          	lw	a4,4(a5)
80001988:	fd842783          	lw	a5,-40(s0)
8000198c:	00e7a223          	sw	a4,4(a5)
/home/arthur/riscv_RV32IM_FreeRTOS/FreeRTOS/Debug/../FreeRTOS/list.c:200
	pxNewListItem->pxNext->pxPrevious = pxNewListItem;
80001990:	fd842783          	lw	a5,-40(s0)
80001994:	0047a783          	lw	a5,4(a5)
80001998:	fd842703          	lw	a4,-40(s0)
8000199c:	00e7a423          	sw	a4,8(a5)
/home/arthur/riscv_RV32IM_FreeRTOS/FreeRTOS/Debug/../FreeRTOS/list.c:201
	pxNewListItem->pxPrevious = pxIterator;
800019a0:	fd842783          	lw	a5,-40(s0)
800019a4:	fec42703          	lw	a4,-20(s0)
800019a8:	00e7a423          	sw	a4,8(a5)
/home/arthur/riscv_RV32IM_FreeRTOS/FreeRTOS/Debug/../FreeRTOS/list.c:202
	pxIterator->pxNext = pxNewListItem;
800019ac:	fec42783          	lw	a5,-20(s0)
800019b0:	fd842703          	lw	a4,-40(s0)
800019b4:	00e7a223          	sw	a4,4(a5)
/home/arthur/riscv_RV32IM_FreeRTOS/FreeRTOS/Debug/../FreeRTOS/list.c:206

	/* Remember which list the item is in.  This allows fast removal of the
	item later. */
	pxNewListItem->pvContainer = ( void * ) pxList;
800019b8:	fd842783          	lw	a5,-40(s0)
800019bc:	fdc42703          	lw	a4,-36(s0)
800019c0:	00e7a823          	sw	a4,16(a5)
/home/arthur/riscv_RV32IM_FreeRTOS/FreeRTOS/Debug/../FreeRTOS/list.c:208

	( pxList->uxNumberOfItems )++;
800019c4:	fdc42783          	lw	a5,-36(s0)
800019c8:	0007a783          	lw	a5,0(a5)
800019cc:	00178713          	addi	a4,a5,1
800019d0:	fdc42783          	lw	a5,-36(s0)
800019d4:	00e7a023          	sw	a4,0(a5)
/home/arthur/riscv_RV32IM_FreeRTOS/FreeRTOS/Debug/../FreeRTOS/list.c:209
}
800019d8:	00000013          	nop
800019dc:	02c12403          	lw	s0,44(sp)
800019e0:	03010113          	addi	sp,sp,48
800019e4:	00008067          	ret

800019e8 <uxListRemove>:
uxListRemove():
/home/arthur/riscv_RV32IM_FreeRTOS/FreeRTOS/Debug/../FreeRTOS/list.c:213
/*-----------------------------------------------------------*/

UBaseType_t uxListRemove( ListItem_t * const pxItemToRemove )
{
800019e8:	fd010113          	addi	sp,sp,-48
800019ec:	02812623          	sw	s0,44(sp)
800019f0:	03010413          	addi	s0,sp,48
800019f4:	fca42e23          	sw	a0,-36(s0)
/home/arthur/riscv_RV32IM_FreeRTOS/FreeRTOS/Debug/../FreeRTOS/list.c:216
/* The list item knows which list it is in.  Obtain the list from the list
item. */
List_t * const pxList = ( List_t * ) pxItemToRemove->pvContainer;
800019f8:	fdc42783          	lw	a5,-36(s0)
800019fc:	0107a783          	lw	a5,16(a5)
80001a00:	fef42623          	sw	a5,-20(s0)
/home/arthur/riscv_RV32IM_FreeRTOS/FreeRTOS/Debug/../FreeRTOS/list.c:218

	pxItemToRemove->pxNext->pxPrevious = pxItemToRemove->pxPrevious;
80001a04:	fdc42783          	lw	a5,-36(s0)
80001a08:	0047a783          	lw	a5,4(a5)
80001a0c:	fdc42703          	lw	a4,-36(s0)
80001a10:	00872703          	lw	a4,8(a4) # 44000008 <RAM_SIZE+0x43f80008>
80001a14:	00e7a423          	sw	a4,8(a5)
/home/arthur/riscv_RV32IM_FreeRTOS/FreeRTOS/Debug/../FreeRTOS/list.c:219
	pxItemToRemove->pxPrevious->pxNext = pxItemToRemove->pxNext;
80001a18:	fdc42783          	lw	a5,-36(s0)
80001a1c:	0087a783          	lw	a5,8(a5)
80001a20:	fdc42703          	lw	a4,-36(s0)
80001a24:	00472703          	lw	a4,4(a4)
80001a28:	00e7a223          	sw	a4,4(a5)
/home/arthur/riscv_RV32IM_FreeRTOS/FreeRTOS/Debug/../FreeRTOS/list.c:225

	/* Only used during decision coverage testing. */
	mtCOVERAGE_TEST_DELAY();

	/* Make sure the index is left pointing to a valid item. */
	if( pxList->pxIndex == pxItemToRemove )
80001a2c:	fec42783          	lw	a5,-20(s0)
80001a30:	0047a783          	lw	a5,4(a5)
80001a34:	fdc42703          	lw	a4,-36(s0)
80001a38:	00f71a63          	bne	a4,a5,80001a4c <uxListRemove+0x64>
/home/arthur/riscv_RV32IM_FreeRTOS/FreeRTOS/Debug/../FreeRTOS/list.c:227
	{
		pxList->pxIndex = pxItemToRemove->pxPrevious;
80001a3c:	fdc42783          	lw	a5,-36(s0)
80001a40:	0087a703          	lw	a4,8(a5)
80001a44:	fec42783          	lw	a5,-20(s0)
80001a48:	00e7a223          	sw	a4,4(a5)
/home/arthur/riscv_RV32IM_FreeRTOS/FreeRTOS/Debug/../FreeRTOS/list.c:234
	else
	{
		mtCOVERAGE_TEST_MARKER();
	}

	pxItemToRemove->pvContainer = NULL;
80001a4c:	fdc42783          	lw	a5,-36(s0)
80001a50:	0007a823          	sw	zero,16(a5)
/home/arthur/riscv_RV32IM_FreeRTOS/FreeRTOS/Debug/../FreeRTOS/list.c:235
	( pxList->uxNumberOfItems )--;
80001a54:	fec42783          	lw	a5,-20(s0)
80001a58:	0007a783          	lw	a5,0(a5)
80001a5c:	fff78713          	addi	a4,a5,-1
80001a60:	fec42783          	lw	a5,-20(s0)
80001a64:	00e7a023          	sw	a4,0(a5)
/home/arthur/riscv_RV32IM_FreeRTOS/FreeRTOS/Debug/../FreeRTOS/list.c:237

	return pxList->uxNumberOfItems;
80001a68:	fec42783          	lw	a5,-20(s0)
80001a6c:	0007a783          	lw	a5,0(a5)
/home/arthur/riscv_RV32IM_FreeRTOS/FreeRTOS/Debug/../FreeRTOS/list.c:238
}
80001a70:	00078513          	mv	a0,a5
80001a74:	02c12403          	lw	s0,44(sp)
80001a78:	03010113          	addi	sp,sp,48
80001a7c:	00008067          	ret

80001a80 <memset>:
memset():
/home/arthur/riscv_RV32IM_FreeRTOS/FreeRTOS/Debug/../FreeRTOS/string.c:25

  return dest;
}

void* memset(void* dest, int byte, size_t len)
{
80001a80:	fd010113          	addi	sp,sp,-48
80001a84:	02812623          	sw	s0,44(sp)
80001a88:	03010413          	addi	s0,sp,48
80001a8c:	fca42e23          	sw	a0,-36(s0)
80001a90:	fcb42c23          	sw	a1,-40(s0)
80001a94:	fcc42a23          	sw	a2,-44(s0)
/home/arthur/riscv_RV32IM_FreeRTOS/FreeRTOS/Debug/../FreeRTOS/string.c:26
  if ((((uintptr_t)dest | len) & (sizeof(uintptr_t)-1)) == 0) {
80001a98:	fdc42703          	lw	a4,-36(s0)
80001a9c:	fd442783          	lw	a5,-44(s0)
80001aa0:	00f767b3          	or	a5,a4,a5
80001aa4:	0037f793          	andi	a5,a5,3
80001aa8:	06079863          	bnez	a5,80001b18 <memset+0x98>
/home/arthur/riscv_RV32IM_FreeRTOS/FreeRTOS/Debug/../FreeRTOS/string.c:27
    uintptr_t word = byte & 0xFF;
80001aac:	fd842783          	lw	a5,-40(s0)
80001ab0:	0ff7f793          	andi	a5,a5,255
80001ab4:	fef42223          	sw	a5,-28(s0)
/home/arthur/riscv_RV32IM_FreeRTOS/FreeRTOS/Debug/../FreeRTOS/string.c:28
    word |= word << 8;
80001ab8:	fe442783          	lw	a5,-28(s0)
80001abc:	00879793          	slli	a5,a5,0x8
80001ac0:	fe442703          	lw	a4,-28(s0)
80001ac4:	00f767b3          	or	a5,a4,a5
80001ac8:	fef42223          	sw	a5,-28(s0)
/home/arthur/riscv_RV32IM_FreeRTOS/FreeRTOS/Debug/../FreeRTOS/string.c:29
    word |= word << 16;
80001acc:	fe442783          	lw	a5,-28(s0)
80001ad0:	01079793          	slli	a5,a5,0x10
80001ad4:	fe442703          	lw	a4,-28(s0)
80001ad8:	00f767b3          	or	a5,a4,a5
80001adc:	fef42223          	sw	a5,-28(s0)
/home/arthur/riscv_RV32IM_FreeRTOS/FreeRTOS/Debug/../FreeRTOS/string.c:32
    word |= word << 16 << 16;

    uintptr_t *d = dest;
80001ae0:	fdc42783          	lw	a5,-36(s0)
80001ae4:	fef42623          	sw	a5,-20(s0)
/home/arthur/riscv_RV32IM_FreeRTOS/FreeRTOS/Debug/../FreeRTOS/string.c:33
    while (d < (uintptr_t*)(dest + len))
80001ae8:	0180006f          	j	80001b00 <memset+0x80>
/home/arthur/riscv_RV32IM_FreeRTOS/FreeRTOS/Debug/../FreeRTOS/string.c:34
      *d++ = word;
80001aec:	fec42783          	lw	a5,-20(s0)
80001af0:	00478713          	addi	a4,a5,4
80001af4:	fee42623          	sw	a4,-20(s0)
80001af8:	fe442703          	lw	a4,-28(s0)
80001afc:	00e7a023          	sw	a4,0(a5)
/home/arthur/riscv_RV32IM_FreeRTOS/FreeRTOS/Debug/../FreeRTOS/string.c:33
    while (d < (uintptr_t*)(dest + len))
80001b00:	fdc42703          	lw	a4,-36(s0)
80001b04:	fd442783          	lw	a5,-44(s0)
80001b08:	00f707b3          	add	a5,a4,a5
80001b0c:	fec42703          	lw	a4,-20(s0)
80001b10:	fcf76ee3          	bltu	a4,a5,80001aec <memset+0x6c>
80001b14:	0400006f          	j	80001b54 <memset+0xd4>
/home/arthur/riscv_RV32IM_FreeRTOS/FreeRTOS/Debug/../FreeRTOS/string.c:36
  } else {
    char *d = dest;
80001b18:	fdc42783          	lw	a5,-36(s0)
80001b1c:	fef42423          	sw	a5,-24(s0)
/home/arthur/riscv_RV32IM_FreeRTOS/FreeRTOS/Debug/../FreeRTOS/string.c:37
    while (d < (char*)(dest + len))
80001b20:	0200006f          	j	80001b40 <memset+0xc0>
/home/arthur/riscv_RV32IM_FreeRTOS/FreeRTOS/Debug/../FreeRTOS/string.c:38
      *d++ = byte;
80001b24:	fe842783          	lw	a5,-24(s0)
80001b28:	00178713          	addi	a4,a5,1
80001b2c:	fee42423          	sw	a4,-24(s0)
80001b30:	fd842703          	lw	a4,-40(s0)
80001b34:	01871713          	slli	a4,a4,0x18
80001b38:	41875713          	srai	a4,a4,0x18
80001b3c:	00e78023          	sb	a4,0(a5)
/home/arthur/riscv_RV32IM_FreeRTOS/FreeRTOS/Debug/../FreeRTOS/string.c:37
    while (d < (char*)(dest + len))
80001b40:	fdc42703          	lw	a4,-36(s0)
80001b44:	fd442783          	lw	a5,-44(s0)
80001b48:	00f707b3          	add	a5,a4,a5
80001b4c:	fe842703          	lw	a4,-24(s0)
80001b50:	fcf76ae3          	bltu	a4,a5,80001b24 <memset+0xa4>
/home/arthur/riscv_RV32IM_FreeRTOS/FreeRTOS/Debug/../FreeRTOS/string.c:40
  }
  return dest;
80001b54:	fdc42783          	lw	a5,-36(s0)
/home/arthur/riscv_RV32IM_FreeRTOS/FreeRTOS/Debug/../FreeRTOS/string.c:41
}
80001b58:	00078513          	mv	a0,a5
80001b5c:	02c12403          	lw	s0,44(sp)
80001b60:	03010113          	addi	sp,sp,48
80001b64:	00008067          	ret

80001b68 <strlen>:
strlen():
/home/arthur/riscv_RV32IM_FreeRTOS/FreeRTOS/Debug/../FreeRTOS/string.c:44

size_t strlen(const char *s)
{
80001b68:	fd010113          	addi	sp,sp,-48
80001b6c:	02812623          	sw	s0,44(sp)
80001b70:	03010413          	addi	s0,sp,48
80001b74:	fca42e23          	sw	a0,-36(s0)
/home/arthur/riscv_RV32IM_FreeRTOS/FreeRTOS/Debug/../FreeRTOS/string.c:45
  const char *p = s;
80001b78:	fdc42783          	lw	a5,-36(s0)
80001b7c:	fef42623          	sw	a5,-20(s0)
/home/arthur/riscv_RV32IM_FreeRTOS/FreeRTOS/Debug/../FreeRTOS/string.c:46
  while (*p)
80001b80:	0100006f          	j	80001b90 <strlen+0x28>
/home/arthur/riscv_RV32IM_FreeRTOS/FreeRTOS/Debug/../FreeRTOS/string.c:47
    p++;
80001b84:	fec42783          	lw	a5,-20(s0)
80001b88:	00178793          	addi	a5,a5,1
80001b8c:	fef42623          	sw	a5,-20(s0)
/home/arthur/riscv_RV32IM_FreeRTOS/FreeRTOS/Debug/../FreeRTOS/string.c:46
  while (*p)
80001b90:	fec42783          	lw	a5,-20(s0)
80001b94:	00078783          	lb	a5,0(a5)
80001b98:	fe0796e3          	bnez	a5,80001b84 <strlen+0x1c>
/home/arthur/riscv_RV32IM_FreeRTOS/FreeRTOS/Debug/../FreeRTOS/string.c:48
  return p - s;
80001b9c:	fec42703          	lw	a4,-20(s0)
80001ba0:	fdc42783          	lw	a5,-36(s0)
80001ba4:	40f707b3          	sub	a5,a4,a5
/home/arthur/riscv_RV32IM_FreeRTOS/FreeRTOS/Debug/../FreeRTOS/string.c:49
}
80001ba8:	00078513          	mv	a0,a5
80001bac:	02c12403          	lw	s0,44(sp)
80001bb0:	03010113          	addi	sp,sp,48
80001bb4:	00008067          	ret

80001bb8 <xTaskGenericCreate>:
xTaskGenericCreate():
/home/arthur/riscv_RV32IM_FreeRTOS/FreeRTOS/Debug/../FreeRTOS/tasks.c:551

#endif
/*-----------------------------------------------------------*/

BaseType_t xTaskGenericCreate( TaskFunction_t pxTaskCode, const char * const pcName, const uint16_t usStackDepth, void * const pvParameters, UBaseType_t uxPriority, TaskHandle_t * const pxCreatedTask, StackType_t * const puxStackBuffer, const MemoryRegion_t * const xRegions ) /*lint !e971 Unqualified char types are allowed for strings and single characters only. */
{
80001bb8:	fc010113          	addi	sp,sp,-64
80001bbc:	02112e23          	sw	ra,60(sp)
80001bc0:	02812c23          	sw	s0,56(sp)
80001bc4:	04010413          	addi	s0,sp,64
80001bc8:	fca42e23          	sw	a0,-36(s0)
80001bcc:	fcb42c23          	sw	a1,-40(s0)
80001bd0:	fcd42823          	sw	a3,-48(s0)
80001bd4:	fce42623          	sw	a4,-52(s0)
80001bd8:	fcf42423          	sw	a5,-56(s0)
80001bdc:	fd042223          	sw	a6,-60(s0)
80001be0:	fd142023          	sw	a7,-64(s0)
80001be4:	00060793          	mv	a5,a2
80001be8:	fcf41b23          	sh	a5,-42(s0)
/home/arthur/riscv_RV32IM_FreeRTOS/FreeRTOS/Debug/../FreeRTOS/tasks.c:556
BaseType_t xReturn;
TCB_t * pxNewTCB;
StackType_t *pxTopOfStack;

	configASSERT( pxTaskCode );
80001bec:	fdc42783          	lw	a5,-36(s0)
80001bf0:	00079663          	bnez	a5,80001bfc <xTaskGenericCreate+0x44>
/home/arthur/riscv_RV32IM_FreeRTOS/FreeRTOS/Debug/../FreeRTOS/tasks.c:556 (discriminator 1)
80001bf4:	30047073          	csrci	mstatus,8
80001bf8:	0000006f          	j	80001bf8 <xTaskGenericCreate+0x40>
/home/arthur/riscv_RV32IM_FreeRTOS/FreeRTOS/Debug/../FreeRTOS/tasks.c:557
	configASSERT( ( ( uxPriority & ( UBaseType_t ) ( ~portPRIVILEGE_BIT ) ) < ( UBaseType_t ) configMAX_PRIORITIES ) );
80001bfc:	fcc42703          	lw	a4,-52(s0)
80001c00:	00400793          	li	a5,4
80001c04:	00e7f663          	bgeu	a5,a4,80001c10 <xTaskGenericCreate+0x58>
/home/arthur/riscv_RV32IM_FreeRTOS/FreeRTOS/Debug/../FreeRTOS/tasks.c:557 (discriminator 1)
80001c08:	30047073          	csrci	mstatus,8
/home/arthur/riscv_RV32IM_FreeRTOS/FreeRTOS/Debug/../FreeRTOS/tasks.c:557 (discriminator 2)
80001c0c:	0000006f          	j	80001c0c <xTaskGenericCreate+0x54>
/home/arthur/riscv_RV32IM_FreeRTOS/FreeRTOS/Debug/../FreeRTOS/tasks.c:561

	/* Allocate the memory required by the TCB and stack for the new task,
	checking that the allocation was successful. */
	pxNewTCB = prvAllocateTCBAndStack( usStackDepth, puxStackBuffer );
80001c10:	fd645783          	lhu	a5,-42(s0)
80001c14:	fc442583          	lw	a1,-60(s0)
80001c18:	00078513          	mv	a0,a5
80001c1c:	291000ef          	jal	ra,800026ac <prvAllocateTCBAndStack>
80001c20:	fea42423          	sw	a0,-24(s0)
/home/arthur/riscv_RV32IM_FreeRTOS/FreeRTOS/Debug/../FreeRTOS/tasks.c:562
	if( pxNewTCB != NULL )
80001c24:	fe842783          	lw	a5,-24(s0)
80001c28:	16078263          	beqz	a5,80001d8c <xTaskGenericCreate+0x1d4>
/home/arthur/riscv_RV32IM_FreeRTOS/FreeRTOS/Debug/../FreeRTOS/tasks.c:598
		stack grows from high memory to low (as per the 80x86) or vice versa.
		portSTACK_GROWTH is used to make the result positive or negative as
		required by the port. */
		#if( portSTACK_GROWTH < 0 )
		{
			pxTopOfStack = pxNewTCB->pxStack + ( usStackDepth - ( uint16_t ) 1 );
80001c2c:	fe842783          	lw	a5,-24(s0)
80001c30:	0307a703          	lw	a4,48(a5)
80001c34:	fd645683          	lhu	a3,-42(s0)
80001c38:	400007b7          	lui	a5,0x40000
80001c3c:	fff78793          	addi	a5,a5,-1 # 3fffffff <RAM_SIZE+0x3ff7ffff>
80001c40:	00f687b3          	add	a5,a3,a5
80001c44:	00279793          	slli	a5,a5,0x2
80001c48:	00f707b3          	add	a5,a4,a5
80001c4c:	fef42223          	sw	a5,-28(s0)
/home/arthur/riscv_RV32IM_FreeRTOS/FreeRTOS/Debug/../FreeRTOS/tasks.c:599
			pxTopOfStack = ( StackType_t * ) ( ( ( portPOINTER_SIZE_TYPE ) pxTopOfStack ) & ( ~( ( portPOINTER_SIZE_TYPE ) portBYTE_ALIGNMENT_MASK ) ) ); /*lint !e923 MISRA exception.  Avoiding casts between pointers and integers is not practical.  Size differences accounted for using portPOINTER_SIZE_TYPE type. */
80001c50:	fe442783          	lw	a5,-28(s0)
80001c54:	ffc7f793          	andi	a5,a5,-4
80001c58:	fef42223          	sw	a5,-28(s0)
/home/arthur/riscv_RV32IM_FreeRTOS/FreeRTOS/Debug/../FreeRTOS/tasks.c:602

			/* Check the alignment of the calculated top of stack is correct. */
			configASSERT( ( ( ( portPOINTER_SIZE_TYPE ) pxTopOfStack & ( portPOINTER_SIZE_TYPE ) portBYTE_ALIGNMENT_MASK ) == 0UL ) );
80001c5c:	fe442783          	lw	a5,-28(s0)
80001c60:	0037f793          	andi	a5,a5,3
80001c64:	00078663          	beqz	a5,80001c70 <xTaskGenericCreate+0xb8>
/home/arthur/riscv_RV32IM_FreeRTOS/FreeRTOS/Debug/../FreeRTOS/tasks.c:602 (discriminator 1)
80001c68:	30047073          	csrci	mstatus,8
/home/arthur/riscv_RV32IM_FreeRTOS/FreeRTOS/Debug/../FreeRTOS/tasks.c:602 (discriminator 3)
80001c6c:	0000006f          	j	80001c6c <xTaskGenericCreate+0xb4>
/home/arthur/riscv_RV32IM_FreeRTOS/FreeRTOS/Debug/../FreeRTOS/tasks.c:619
			pxNewTCB->pxEndOfStack = pxNewTCB->pxStack + ( usStackDepth - 1 );
		}
		#endif /* portSTACK_GROWTH */

		/* Setup the newly allocated TCB with the initial state of the task. */
		prvInitialiseTCBVariables( pxNewTCB, pcName, uxPriority, xRegions, usStackDepth );
80001c70:	fd645783          	lhu	a5,-42(s0)
80001c74:	00078713          	mv	a4,a5
80001c78:	fc042683          	lw	a3,-64(s0)
80001c7c:	fcc42603          	lw	a2,-52(s0)
80001c80:	fd842583          	lw	a1,-40(s0)
80001c84:	fe842503          	lw	a0,-24(s0)
80001c88:	6fc000ef          	jal	ra,80002384 <prvInitialiseTCBVariables>
/home/arthur/riscv_RV32IM_FreeRTOS/FreeRTOS/Debug/../FreeRTOS/tasks.c:631
		{
			pxNewTCB->pxTopOfStack = pxPortInitialiseStack( pxTopOfStack, pxTaskCode, pvParameters, xRunPrivileged );
		}
		#else /* portUSING_MPU_WRAPPERS */
		{
			pxNewTCB->pxTopOfStack = pxPortInitialiseStack( pxTopOfStack, pxTaskCode, pvParameters );
80001c8c:	fd042603          	lw	a2,-48(s0)
80001c90:	fdc42583          	lw	a1,-36(s0)
80001c94:	fe442503          	lw	a0,-28(s0)
80001c98:	8c1ff0ef          	jal	ra,80001558 <pxPortInitialiseStack>
80001c9c:	00050713          	mv	a4,a0
80001ca0:	fe842783          	lw	a5,-24(s0)
80001ca4:	00e7a023          	sw	a4,0(a5)
/home/arthur/riscv_RV32IM_FreeRTOS/FreeRTOS/Debug/../FreeRTOS/tasks.c:635
		}
		#endif /* portUSING_MPU_WRAPPERS */

		if( ( void * ) pxCreatedTask != NULL )
80001ca8:	fc842783          	lw	a5,-56(s0)
80001cac:	00078863          	beqz	a5,80001cbc <xTaskGenericCreate+0x104>
/home/arthur/riscv_RV32IM_FreeRTOS/FreeRTOS/Debug/../FreeRTOS/tasks.c:640
		{
			/* Pass the TCB out - in an anonymous way.  The calling function/
			task can use this as a handle to delete the task later if
			required.*/
			*pxCreatedTask = ( TaskHandle_t ) pxNewTCB;
80001cb0:	fc842783          	lw	a5,-56(s0)
80001cb4:	fe842703          	lw	a4,-24(s0)
80001cb8:	00e7a023          	sw	a4,0(a5)
/home/arthur/riscv_RV32IM_FreeRTOS/FreeRTOS/Debug/../FreeRTOS/tasks.c:649
			mtCOVERAGE_TEST_MARKER();
		}

		/* Ensure interrupts don't access the task lists while they are being
		updated. */
		taskENTER_CRITICAL();
80001cbc:	e64ff0ef          	jal	ra,80001320 <vPortEnterCritical>
/home/arthur/riscv_RV32IM_FreeRTOS/FreeRTOS/Debug/../FreeRTOS/tasks.c:651
		{
			uxCurrentNumberOfTasks++;
80001cc0:	9401a783          	lw	a5,-1728(gp) # 80002d10 <uxCurrentNumberOfTasks>
80001cc4:	00178713          	addi	a4,a5,1
80001cc8:	94e1a023          	sw	a4,-1728(gp) # 80002d10 <uxCurrentNumberOfTasks>
/home/arthur/riscv_RV32IM_FreeRTOS/FreeRTOS/Debug/../FreeRTOS/tasks.c:652
			if( pxCurrentTCB == NULL )
80001ccc:	9301a783          	lw	a5,-1744(gp) # 80002d00 <pxCurrentTCB>
80001cd0:	02079063          	bnez	a5,80001cf0 <xTaskGenericCreate+0x138>
/home/arthur/riscv_RV32IM_FreeRTOS/FreeRTOS/Debug/../FreeRTOS/tasks.c:656
			{
				/* There are no other tasks, or all the other tasks are in
				the suspended state - make this the current task. */
				pxCurrentTCB =  pxNewTCB;
80001cd4:	fe842703          	lw	a4,-24(s0)
80001cd8:	92e1a823          	sw	a4,-1744(gp) # 80002d00 <pxCurrentTCB>
/home/arthur/riscv_RV32IM_FreeRTOS/FreeRTOS/Debug/../FreeRTOS/tasks.c:658

				if( uxCurrentNumberOfTasks == ( UBaseType_t ) 1 )
80001cdc:	9401a703          	lw	a4,-1728(gp) # 80002d10 <uxCurrentNumberOfTasks>
80001ce0:	00100793          	li	a5,1
80001ce4:	02f71663          	bne	a4,a5,80001d10 <xTaskGenericCreate+0x158>
/home/arthur/riscv_RV32IM_FreeRTOS/FreeRTOS/Debug/../FreeRTOS/tasks.c:663
				{
					/* This is the first task to be created so do the preliminary
					initialisation required.  We will not recover if this call
					fails, but we will report the failure. */
					prvInitialiseTaskLists();
80001ce8:	7d4000ef          	jal	ra,800024bc <prvInitialiseTaskLists>
80001cec:	0240006f          	j	80001d10 <xTaskGenericCreate+0x158>
/home/arthur/riscv_RV32IM_FreeRTOS/FreeRTOS/Debug/../FreeRTOS/tasks.c:675
			else
			{
				/* If the scheduler is not already running, make this task the
				current task if it is the highest priority task to be created
				so far. */
				if( xSchedulerRunning == pdFALSE )
80001cf0:	94c1a783          	lw	a5,-1716(gp) # 80002d1c <xSchedulerRunning>
80001cf4:	00079e63          	bnez	a5,80001d10 <xTaskGenericCreate+0x158>
/home/arthur/riscv_RV32IM_FreeRTOS/FreeRTOS/Debug/../FreeRTOS/tasks.c:677
				{
					if( pxCurrentTCB->uxPriority <= uxPriority )
80001cf8:	9301a783          	lw	a5,-1744(gp) # 80002d00 <pxCurrentTCB>
80001cfc:	02c7a783          	lw	a5,44(a5)
80001d00:	fcc42703          	lw	a4,-52(s0)
80001d04:	00f76663          	bltu	a4,a5,80001d10 <xTaskGenericCreate+0x158>
/home/arthur/riscv_RV32IM_FreeRTOS/FreeRTOS/Debug/../FreeRTOS/tasks.c:679
					{
						pxCurrentTCB = pxNewTCB;
80001d08:	fe842703          	lw	a4,-24(s0)
80001d0c:	92e1a823          	sw	a4,-1744(gp) # 80002d00 <pxCurrentTCB>
/home/arthur/riscv_RV32IM_FreeRTOS/FreeRTOS/Debug/../FreeRTOS/tasks.c:692
				{
					mtCOVERAGE_TEST_MARKER();
				}
			}

			uxTaskNumber++;
80001d10:	95c1a783          	lw	a5,-1700(gp) # 80002d2c <uxTaskNumber>
80001d14:	00178713          	addi	a4,a5,1
80001d18:	94e1ae23          	sw	a4,-1700(gp) # 80002d2c <uxTaskNumber>
/home/arthur/riscv_RV32IM_FreeRTOS/FreeRTOS/Debug/../FreeRTOS/tasks.c:697

			#if ( configUSE_TRACE_FACILITY == 1 )
			{
				/* Add a counter into the TCB for tracing only. */
				pxNewTCB->uxTCBNumber = uxTaskNumber;
80001d1c:	95c1a703          	lw	a4,-1700(gp) # 80002d2c <uxTaskNumber>
80001d20:	fe842783          	lw	a5,-24(s0)
80001d24:	04e7a423          	sw	a4,72(a5)
/home/arthur/riscv_RV32IM_FreeRTOS/FreeRTOS/Debug/../FreeRTOS/tasks.c:702
			}
			#endif /* configUSE_TRACE_FACILITY */
			traceTASK_CREATE( pxNewTCB );

			prvAddTaskToReadyList( pxNewTCB );
80001d28:	fe842783          	lw	a5,-24(s0)
80001d2c:	02c7a703          	lw	a4,44(a5)
80001d30:	9481a783          	lw	a5,-1720(gp) # 80002d18 <uxTopReadyPriority>
80001d34:	00e7f863          	bgeu	a5,a4,80001d44 <xTaskGenericCreate+0x18c>
/home/arthur/riscv_RV32IM_FreeRTOS/FreeRTOS/Debug/../FreeRTOS/tasks.c:702 (discriminator 1)
80001d38:	fe842783          	lw	a5,-24(s0)
80001d3c:	02c7a703          	lw	a4,44(a5)
80001d40:	94e1a423          	sw	a4,-1720(gp) # 80002d18 <uxTopReadyPriority>
/home/arthur/riscv_RV32IM_FreeRTOS/FreeRTOS/Debug/../FreeRTOS/tasks.c:702 (discriminator 3)
80001d44:	fe842783          	lw	a5,-24(s0)
80001d48:	02c7a703          	lw	a4,44(a5)
80001d4c:	00070793          	mv	a5,a4
80001d50:	00279793          	slli	a5,a5,0x2
80001d54:	00e787b3          	add	a5,a5,a4
80001d58:	00279793          	slli	a5,a5,0x2
80001d5c:	8001c737          	lui	a4,0x8001c
80001d60:	d4070713          	addi	a4,a4,-704 # 8001bd40 <__stack_top+0xfffdff30>
80001d64:	00e78733          	add	a4,a5,a4
80001d68:	fe842783          	lw	a5,-24(s0)
80001d6c:	00478793          	addi	a5,a5,4
80001d70:	00078593          	mv	a1,a5
80001d74:	00070513          	mv	a0,a4
80001d78:	b15ff0ef          	jal	ra,8000188c <vListInsertEnd>
/home/arthur/riscv_RV32IM_FreeRTOS/FreeRTOS/Debug/../FreeRTOS/tasks.c:704 (discriminator 3)

			xReturn = pdPASS;
80001d7c:	00100793          	li	a5,1
80001d80:	fef42623          	sw	a5,-20(s0)
/home/arthur/riscv_RV32IM_FreeRTOS/FreeRTOS/Debug/../FreeRTOS/tasks.c:707 (discriminator 3)
			portSETUP_TCB( pxNewTCB );
		}
		taskEXIT_CRITICAL();
80001d84:	dd0ff0ef          	jal	ra,80001354 <vPortExitCritical>
80001d88:	00c0006f          	j	80001d94 <xTaskGenericCreate+0x1dc>
/home/arthur/riscv_RV32IM_FreeRTOS/FreeRTOS/Debug/../FreeRTOS/tasks.c:711
	}
	else
	{
		xReturn = errCOULD_NOT_ALLOCATE_REQUIRED_MEMORY;
80001d8c:	fff00793          	li	a5,-1
80001d90:	fef42623          	sw	a5,-20(s0)
/home/arthur/riscv_RV32IM_FreeRTOS/FreeRTOS/Debug/../FreeRTOS/tasks.c:715
		traceTASK_CREATE_FAILED();
	}

	if( xReturn == pdPASS )
80001d94:	fec42703          	lw	a4,-20(s0)
80001d98:	00100793          	li	a5,1
80001d9c:	02f71063          	bne	a4,a5,80001dbc <xTaskGenericCreate+0x204>
/home/arthur/riscv_RV32IM_FreeRTOS/FreeRTOS/Debug/../FreeRTOS/tasks.c:717
	{
		if( xSchedulerRunning != pdFALSE )
80001da0:	94c1a783          	lw	a5,-1716(gp) # 80002d1c <xSchedulerRunning>
80001da4:	00078c63          	beqz	a5,80001dbc <xTaskGenericCreate+0x204>
/home/arthur/riscv_RV32IM_FreeRTOS/FreeRTOS/Debug/../FreeRTOS/tasks.c:721
		{
			/* If the created task is of a higher priority than the current task
			then it should run now. */
			if( pxCurrentTCB->uxPriority < uxPriority )
80001da8:	9301a783          	lw	a5,-1744(gp) # 80002d00 <pxCurrentTCB>
80001dac:	02c7a783          	lw	a5,44(a5)
80001db0:	fcc42703          	lw	a4,-52(s0)
80001db4:	00e7f463          	bgeu	a5,a4,80001dbc <xTaskGenericCreate+0x204>
/home/arthur/riscv_RV32IM_FreeRTOS/FreeRTOS/Debug/../FreeRTOS/tasks.c:723
			{
				taskYIELD_IF_USING_PREEMPTION();
80001db8:	a21ff0ef          	jal	ra,800017d8 <vPortYield>
/home/arthur/riscv_RV32IM_FreeRTOS/FreeRTOS/Debug/../FreeRTOS/tasks.c:736
		{
			mtCOVERAGE_TEST_MARKER();
		}
	}

	return xReturn;
80001dbc:	fec42783          	lw	a5,-20(s0)
/home/arthur/riscv_RV32IM_FreeRTOS/FreeRTOS/Debug/../FreeRTOS/tasks.c:737
}
80001dc0:	00078513          	mv	a0,a5
80001dc4:	03c12083          	lw	ra,60(sp)
80001dc8:	03812403          	lw	s0,56(sp)
80001dcc:	04010113          	addi	sp,sp,64
80001dd0:	00008067          	ret

80001dd4 <vTaskDelay>:
vTaskDelay():
/home/arthur/riscv_RV32IM_FreeRTOS/FreeRTOS/Debug/../FreeRTOS/tasks.c:921
/*-----------------------------------------------------------*/

#if ( INCLUDE_vTaskDelay == 1 )

	void vTaskDelay( const TickType_t xTicksToDelay )
	{
80001dd4:	fd010113          	addi	sp,sp,-48
80001dd8:	02112623          	sw	ra,44(sp)
80001ddc:	02812423          	sw	s0,40(sp)
80001de0:	03010413          	addi	s0,sp,48
80001de4:	fca42e23          	sw	a0,-36(s0)
/home/arthur/riscv_RV32IM_FreeRTOS/FreeRTOS/Debug/../FreeRTOS/tasks.c:923
	TickType_t xTimeToWake;
	BaseType_t xAlreadyYielded = pdFALSE;
80001de8:	fe042623          	sw	zero,-20(s0)
/home/arthur/riscv_RV32IM_FreeRTOS/FreeRTOS/Debug/../FreeRTOS/tasks.c:927


		/* A delay time of zero just forces a reschedule. */
		if( xTicksToDelay > ( TickType_t ) 0U )
80001dec:	fdc42783          	lw	a5,-36(s0)
80001df0:	04078463          	beqz	a5,80001e38 <vTaskDelay+0x64>
/home/arthur/riscv_RV32IM_FreeRTOS/FreeRTOS/Debug/../FreeRTOS/tasks.c:929
		{
			configASSERT( uxSchedulerSuspended == 0 );
80001df4:	9641a783          	lw	a5,-1692(gp) # 80002d34 <uxSchedulerSuspended>
80001df8:	00078663          	beqz	a5,80001e04 <vTaskDelay+0x30>
/home/arthur/riscv_RV32IM_FreeRTOS/FreeRTOS/Debug/../FreeRTOS/tasks.c:929 (discriminator 1)
80001dfc:	30047073          	csrci	mstatus,8
80001e00:	0000006f          	j	80001e00 <vTaskDelay+0x2c>
/home/arthur/riscv_RV32IM_FreeRTOS/FreeRTOS/Debug/../FreeRTOS/tasks.c:930
			vTaskSuspendAll();
80001e04:	0e4000ef          	jal	ra,80001ee8 <vTaskSuspendAll>
/home/arthur/riscv_RV32IM_FreeRTOS/FreeRTOS/Debug/../FreeRTOS/tasks.c:944
				This task cannot be in an event list as it is the currently
				executing task. */

				/* Calculate the time to wake - this may overflow but this is
				not a problem. */
				xTimeToWake = xTickCount + xTicksToDelay;
80001e08:	9441a783          	lw	a5,-1724(gp) # 80002d14 <xTickCount>
80001e0c:	fdc42703          	lw	a4,-36(s0)
80001e10:	00f707b3          	add	a5,a4,a5
80001e14:	fef42423          	sw	a5,-24(s0)
/home/arthur/riscv_RV32IM_FreeRTOS/FreeRTOS/Debug/../FreeRTOS/tasks.c:949

				/* We must remove ourselves from the ready list before adding
				ourselves to the blocked list as the same list item is used for
				both lists. */
				if( uxListRemove( &( pxCurrentTCB->xGenericListItem ) ) == ( UBaseType_t ) 0 )
80001e18:	9301a783          	lw	a5,-1744(gp) # 80002d00 <pxCurrentTCB>
80001e1c:	00478793          	addi	a5,a5,4
80001e20:	00078513          	mv	a0,a5
80001e24:	bc5ff0ef          	jal	ra,800019e8 <uxListRemove>
/home/arthur/riscv_RV32IM_FreeRTOS/FreeRTOS/Debug/../FreeRTOS/tasks.c:960
				}
				else
				{
					mtCOVERAGE_TEST_MARKER();
				}
				prvAddCurrentTaskToDelayedList( xTimeToWake );
80001e28:	fe842503          	lw	a0,-24(s0)
80001e2c:	7f8000ef          	jal	ra,80002624 <prvAddCurrentTaskToDelayedList>
/home/arthur/riscv_RV32IM_FreeRTOS/FreeRTOS/Debug/../FreeRTOS/tasks.c:962
			}
			xAlreadyYielded = xTaskResumeAll();
80001e30:	0e0000ef          	jal	ra,80001f10 <xTaskResumeAll>
80001e34:	fea42623          	sw	a0,-20(s0)
/home/arthur/riscv_RV32IM_FreeRTOS/FreeRTOS/Debug/../FreeRTOS/tasks.c:971
			mtCOVERAGE_TEST_MARKER();
		}

		/* Force a reschedule if xTaskResumeAll has not already done so, we may
		have put ourselves to sleep. */
		if( xAlreadyYielded == pdFALSE )
80001e38:	fec42783          	lw	a5,-20(s0)
80001e3c:	00079463          	bnez	a5,80001e44 <vTaskDelay+0x70>
/home/arthur/riscv_RV32IM_FreeRTOS/FreeRTOS/Debug/../FreeRTOS/tasks.c:973
		{
			portYIELD_WITHIN_API();
80001e40:	999ff0ef          	jal	ra,800017d8 <vPortYield>
/home/arthur/riscv_RV32IM_FreeRTOS/FreeRTOS/Debug/../FreeRTOS/tasks.c:979
		}
		else
		{
			mtCOVERAGE_TEST_MARKER();
		}
	}
80001e44:	00000013          	nop
80001e48:	02c12083          	lw	ra,44(sp)
80001e4c:	02812403          	lw	s0,40(sp)
80001e50:	03010113          	addi	sp,sp,48
80001e54:	00008067          	ret

80001e58 <vTaskStartScheduler>:
vTaskStartScheduler():
/home/arthur/riscv_RV32IM_FreeRTOS/FreeRTOS/Debug/../FreeRTOS/tasks.c:1542

#endif /* ( ( INCLUDE_xTaskResumeFromISR == 1 ) && ( INCLUDE_vTaskSuspend == 1 ) ) */
/*-----------------------------------------------------------*/

void vTaskStartScheduler( void )
{
80001e58:	fe010113          	addi	sp,sp,-32
80001e5c:	00112e23          	sw	ra,28(sp)
80001e60:	00812c23          	sw	s0,24(sp)
80001e64:	02010413          	addi	s0,sp,32
/home/arthur/riscv_RV32IM_FreeRTOS/FreeRTOS/Debug/../FreeRTOS/tasks.c:1555
		xReturn = xTaskCreate( prvIdleTask, "IDLE", tskIDLE_STACK_SIZE, ( void * ) NULL, ( tskIDLE_PRIORITY | portPRIVILEGE_BIT ), &xIdleTaskHandle ); /*lint !e961 MISRA exception, justified as it is not a redundant explicit cast to all supported compilers. */
	}
	#else
	{
		/* Create the idle task without storing its handle. */
		xReturn = xTaskCreate( prvIdleTask, "IDLE", tskIDLE_STACK_SIZE, ( void * ) NULL, ( tskIDLE_PRIORITY | portPRIVILEGE_BIT ), NULL );  /*lint !e961 MISRA exception, justified as it is not a redundant explicit cast to all supported compilers. */
80001e68:	00000893          	li	a7,0
80001e6c:	00000813          	li	a6,0
80001e70:	00000793          	li	a5,0
80001e74:	00000713          	li	a4,0
80001e78:	00000693          	li	a3,0
80001e7c:	40000613          	li	a2,1024
80001e80:	800035b7          	lui	a1,0x80003
80001e84:	ae858593          	addi	a1,a1,-1304 # 80002ae8 <__stack_top+0xfffc6cd8>
80001e88:	80002537          	lui	a0,0x80002
80001e8c:	34c50513          	addi	a0,a0,844 # 8000234c <__stack_top+0xfffc653c>
80001e90:	d29ff0ef          	jal	ra,80001bb8 <xTaskGenericCreate>
80001e94:	fea42623          	sw	a0,-20(s0)
/home/arthur/riscv_RV32IM_FreeRTOS/FreeRTOS/Debug/../FreeRTOS/tasks.c:1572
			mtCOVERAGE_TEST_MARKER();
		}
	}
	#endif /* configUSE_TIMERS */

	if( xReturn == pdPASS )
80001e98:	fec42703          	lw	a4,-20(s0)
80001e9c:	00100793          	li	a5,1
80001ea0:	02f71263          	bne	a4,a5,80001ec4 <vTaskStartScheduler+0x6c>
/home/arthur/riscv_RV32IM_FreeRTOS/FreeRTOS/Debug/../FreeRTOS/tasks.c:1579
		/* Interrupts are turned off here, to ensure a tick does not occur
		before or during the call to xPortStartScheduler().  The stacks of
		the created tasks contain a status word with interrupts switched on
		so interrupts will automatically get re-enabled when the first task
		starts to run. */
		portDISABLE_INTERRUPTS();
80001ea4:	30047073          	csrci	mstatus,8
/home/arthur/riscv_RV32IM_FreeRTOS/FreeRTOS/Debug/../FreeRTOS/tasks.c:1589
			structure specific to the task that will run first. */
			_impure_ptr = &( pxCurrentTCB->xNewLib_reent );
		}
		#endif /* configUSE_NEWLIB_REENTRANT */

		xNextTaskUnblockTime = portMAX_DELAY;
80001ea8:	fff00713          	li	a4,-1
80001eac:	96e1a023          	sw	a4,-1696(gp) # 80002d30 <xNextTaskUnblockTime>
/home/arthur/riscv_RV32IM_FreeRTOS/FreeRTOS/Debug/../FreeRTOS/tasks.c:1590
		xSchedulerRunning = pdTRUE;
80001eb0:	00100713          	li	a4,1
80001eb4:	94e1a623          	sw	a4,-1716(gp) # 80002d1c <xSchedulerRunning>
/home/arthur/riscv_RV32IM_FreeRTOS/FreeRTOS/Debug/../FreeRTOS/tasks.c:1591
		xTickCount = ( TickType_t ) 0U;
80001eb8:	9401a223          	sw	zero,-1724(gp) # 80002d14 <xTickCount>
/home/arthur/riscv_RV32IM_FreeRTOS/FreeRTOS/Debug/../FreeRTOS/tasks.c:1600
		the run time counter time base. */
		portCONFIGURE_TIMER_FOR_RUN_TIME_STATS();

		/* Setting up the timer tick is hardware specific and thus in the
		portable interface. */
		if( xPortStartScheduler() != pdFALSE )
80001ebc:	ffcff0ef          	jal	ra,800016b8 <xPortStartScheduler>
/home/arthur/riscv_RV32IM_FreeRTOS/FreeRTOS/Debug/../FreeRTOS/tasks.c:1617
		/* This line will only be reached if the kernel could not be started,
		because there was not enough FreeRTOS heap to create the idle task
		or the timer task. */
		configASSERT( xReturn );
	}
}
80001ec0:	0140006f          	j	80001ed4 <vTaskStartScheduler+0x7c>
/home/arthur/riscv_RV32IM_FreeRTOS/FreeRTOS/Debug/../FreeRTOS/tasks.c:1615
		configASSERT( xReturn );
80001ec4:	fec42783          	lw	a5,-20(s0)
80001ec8:	00079663          	bnez	a5,80001ed4 <vTaskStartScheduler+0x7c>
/home/arthur/riscv_RV32IM_FreeRTOS/FreeRTOS/Debug/../FreeRTOS/tasks.c:1615 (discriminator 1)
80001ecc:	30047073          	csrci	mstatus,8
/home/arthur/riscv_RV32IM_FreeRTOS/FreeRTOS/Debug/../FreeRTOS/tasks.c:1615 (discriminator 2)
80001ed0:	0000006f          	j	80001ed0 <vTaskStartScheduler+0x78>
/home/arthur/riscv_RV32IM_FreeRTOS/FreeRTOS/Debug/../FreeRTOS/tasks.c:1617
}
80001ed4:	00000013          	nop
80001ed8:	01c12083          	lw	ra,28(sp)
80001edc:	01812403          	lw	s0,24(sp)
80001ee0:	02010113          	addi	sp,sp,32
80001ee4:	00008067          	ret

80001ee8 <vTaskSuspendAll>:
vTaskSuspendAll():
/home/arthur/riscv_RV32IM_FreeRTOS/FreeRTOS/Debug/../FreeRTOS/tasks.c:1632
	vPortEndScheduler();
}
/*----------------------------------------------------------*/

void vTaskSuspendAll( void )
{
80001ee8:	ff010113          	addi	sp,sp,-16
80001eec:	00812623          	sw	s0,12(sp)
80001ef0:	01010413          	addi	s0,sp,16
/home/arthur/riscv_RV32IM_FreeRTOS/FreeRTOS/Debug/../FreeRTOS/tasks.c:1637
	/* A critical section is not required as the variable is of type
	BaseType_t.  Please read Richard Barry's reply in the following link to a
	post in the FreeRTOS support forum before reporting this as a bug! -
	http://goo.gl/wu4acr */
	++uxSchedulerSuspended;
80001ef4:	9641a783          	lw	a5,-1692(gp) # 80002d34 <uxSchedulerSuspended>
80001ef8:	00178713          	addi	a4,a5,1
80001efc:	96e1a223          	sw	a4,-1692(gp) # 80002d34 <uxSchedulerSuspended>
/home/arthur/riscv_RV32IM_FreeRTOS/FreeRTOS/Debug/../FreeRTOS/tasks.c:1638
}
80001f00:	00000013          	nop
80001f04:	00c12403          	lw	s0,12(sp)
80001f08:	01010113          	addi	sp,sp,16
80001f0c:	00008067          	ret

80001f10 <xTaskResumeAll>:
xTaskResumeAll():
/home/arthur/riscv_RV32IM_FreeRTOS/FreeRTOS/Debug/../FreeRTOS/tasks.c:1670

#endif /* configUSE_TICKLESS_IDLE */
/*----------------------------------------------------------*/

BaseType_t xTaskResumeAll( void )
{
80001f10:	fe010113          	addi	sp,sp,-32
80001f14:	00112e23          	sw	ra,28(sp)
80001f18:	00812c23          	sw	s0,24(sp)
80001f1c:	02010413          	addi	s0,sp,32
/home/arthur/riscv_RV32IM_FreeRTOS/FreeRTOS/Debug/../FreeRTOS/tasks.c:1672
TCB_t *pxTCB;
BaseType_t xAlreadyYielded = pdFALSE;
80001f20:	fe042623          	sw	zero,-20(s0)
/home/arthur/riscv_RV32IM_FreeRTOS/FreeRTOS/Debug/../FreeRTOS/tasks.c:1676

	/* If uxSchedulerSuspended is zero then this function does not match a
	previous call to vTaskSuspendAll(). */
	configASSERT( uxSchedulerSuspended );
80001f24:	9641a783          	lw	a5,-1692(gp) # 80002d34 <uxSchedulerSuspended>
80001f28:	00079663          	bnez	a5,80001f34 <xTaskResumeAll+0x24>
/home/arthur/riscv_RV32IM_FreeRTOS/FreeRTOS/Debug/../FreeRTOS/tasks.c:1676 (discriminator 1)
80001f2c:	30047073          	csrci	mstatus,8
80001f30:	0000006f          	j	80001f30 <xTaskResumeAll+0x20>
/home/arthur/riscv_RV32IM_FreeRTOS/FreeRTOS/Debug/../FreeRTOS/tasks.c:1683
	/* It is possible that an ISR caused a task to be removed from an event
	list while the scheduler was suspended.  If this was the case then the
	removed task will have been added to the xPendingReadyList.  Once the
	scheduler has been resumed it is safe to move all the pending ready
	tasks from this list into their appropriate ready list. */
	taskENTER_CRITICAL();
80001f34:	becff0ef          	jal	ra,80001320 <vPortEnterCritical>
/home/arthur/riscv_RV32IM_FreeRTOS/FreeRTOS/Debug/../FreeRTOS/tasks.c:1685
	{
		--uxSchedulerSuspended;
80001f38:	9641a783          	lw	a5,-1692(gp) # 80002d34 <uxSchedulerSuspended>
80001f3c:	fff78713          	addi	a4,a5,-1
80001f40:	96e1a223          	sw	a4,-1692(gp) # 80002d34 <uxSchedulerSuspended>
/home/arthur/riscv_RV32IM_FreeRTOS/FreeRTOS/Debug/../FreeRTOS/tasks.c:1687

		if( uxSchedulerSuspended == ( UBaseType_t ) pdFALSE )
80001f44:	9641a783          	lw	a5,-1692(gp) # 80002d34 <uxSchedulerSuspended>
80001f48:	10079863          	bnez	a5,80002058 <xTaskResumeAll+0x148>
/home/arthur/riscv_RV32IM_FreeRTOS/FreeRTOS/Debug/../FreeRTOS/tasks.c:1689
		{
			if( uxCurrentNumberOfTasks > ( UBaseType_t ) 0U )
80001f4c:	9401a783          	lw	a5,-1728(gp) # 80002d10 <uxCurrentNumberOfTasks>
80001f50:	10078463          	beqz	a5,80002058 <xTaskResumeAll+0x148>
/home/arthur/riscv_RV32IM_FreeRTOS/FreeRTOS/Debug/../FreeRTOS/tasks.c:1693
			{
				/* Move any readied tasks from the pending list into the
				appropriate ready list. */
				while( listLIST_IS_EMPTY( &xPendingReadyList ) == pdFALSE )
80001f54:	0a80006f          	j	80001ffc <xTaskResumeAll+0xec>
/home/arthur/riscv_RV32IM_FreeRTOS/FreeRTOS/Debug/../FreeRTOS/tasks.c:1695
				{
					pxTCB = ( TCB_t * ) listGET_OWNER_OF_HEAD_ENTRY( ( &xPendingReadyList ) );
80001f58:	8001c7b7          	lui	a5,0x8001c
80001f5c:	dcc78793          	addi	a5,a5,-564 # 8001bdcc <__stack_top+0xfffdffbc>
80001f60:	00c7a783          	lw	a5,12(a5)
80001f64:	00c7a783          	lw	a5,12(a5)
80001f68:	fef42423          	sw	a5,-24(s0)
/home/arthur/riscv_RV32IM_FreeRTOS/FreeRTOS/Debug/../FreeRTOS/tasks.c:1696
					( void ) uxListRemove( &( pxTCB->xEventListItem ) );
80001f6c:	fe842783          	lw	a5,-24(s0)
80001f70:	01878793          	addi	a5,a5,24
80001f74:	00078513          	mv	a0,a5
80001f78:	a71ff0ef          	jal	ra,800019e8 <uxListRemove>
/home/arthur/riscv_RV32IM_FreeRTOS/FreeRTOS/Debug/../FreeRTOS/tasks.c:1697
					( void ) uxListRemove( &( pxTCB->xGenericListItem ) );
80001f7c:	fe842783          	lw	a5,-24(s0)
80001f80:	00478793          	addi	a5,a5,4
80001f84:	00078513          	mv	a0,a5
80001f88:	a61ff0ef          	jal	ra,800019e8 <uxListRemove>
/home/arthur/riscv_RV32IM_FreeRTOS/FreeRTOS/Debug/../FreeRTOS/tasks.c:1698
					prvAddTaskToReadyList( pxTCB );
80001f8c:	fe842783          	lw	a5,-24(s0)
80001f90:	02c7a703          	lw	a4,44(a5)
80001f94:	9481a783          	lw	a5,-1720(gp) # 80002d18 <uxTopReadyPriority>
80001f98:	00e7f863          	bgeu	a5,a4,80001fa8 <xTaskResumeAll+0x98>
/home/arthur/riscv_RV32IM_FreeRTOS/FreeRTOS/Debug/../FreeRTOS/tasks.c:1698 (discriminator 1)
80001f9c:	fe842783          	lw	a5,-24(s0)
80001fa0:	02c7a703          	lw	a4,44(a5)
80001fa4:	94e1a423          	sw	a4,-1720(gp) # 80002d18 <uxTopReadyPriority>
/home/arthur/riscv_RV32IM_FreeRTOS/FreeRTOS/Debug/../FreeRTOS/tasks.c:1698 (discriminator 3)
80001fa8:	fe842783          	lw	a5,-24(s0)
80001fac:	02c7a703          	lw	a4,44(a5)
80001fb0:	00070793          	mv	a5,a4
80001fb4:	00279793          	slli	a5,a5,0x2
80001fb8:	00e787b3          	add	a5,a5,a4
80001fbc:	00279793          	slli	a5,a5,0x2
80001fc0:	8001c737          	lui	a4,0x8001c
80001fc4:	d4070713          	addi	a4,a4,-704 # 8001bd40 <__stack_top+0xfffdff30>
80001fc8:	00e78733          	add	a4,a5,a4
80001fcc:	fe842783          	lw	a5,-24(s0)
80001fd0:	00478793          	addi	a5,a5,4
80001fd4:	00078593          	mv	a1,a5
80001fd8:	00070513          	mv	a0,a4
80001fdc:	8b1ff0ef          	jal	ra,8000188c <vListInsertEnd>
/home/arthur/riscv_RV32IM_FreeRTOS/FreeRTOS/Debug/../FreeRTOS/tasks.c:1702 (discriminator 3)

					/* If the moved task has a priority higher than the current
					task then a yield must be performed. */
					if( pxTCB->uxPriority >= pxCurrentTCB->uxPriority )
80001fe0:	fe842783          	lw	a5,-24(s0)
80001fe4:	02c7a703          	lw	a4,44(a5)
80001fe8:	9301a783          	lw	a5,-1744(gp) # 80002d00 <pxCurrentTCB>
80001fec:	02c7a783          	lw	a5,44(a5)
80001ff0:	00f76663          	bltu	a4,a5,80001ffc <xTaskResumeAll+0xec>
/home/arthur/riscv_RV32IM_FreeRTOS/FreeRTOS/Debug/../FreeRTOS/tasks.c:1704
					{
						xYieldPending = pdTRUE;
80001ff4:	00100713          	li	a4,1
80001ff8:	94e1aa23          	sw	a4,-1708(gp) # 80002d24 <xYieldPending>
/home/arthur/riscv_RV32IM_FreeRTOS/FreeRTOS/Debug/../FreeRTOS/tasks.c:1693
				while( listLIST_IS_EMPTY( &xPendingReadyList ) == pdFALSE )
80001ffc:	8001c7b7          	lui	a5,0x8001c
80002000:	dcc78793          	addi	a5,a5,-564 # 8001bdcc <__stack_top+0xfffdffbc>
80002004:	0007a783          	lw	a5,0(a5)
80002008:	f40798e3          	bnez	a5,80001f58 <xTaskResumeAll+0x48>
/home/arthur/riscv_RV32IM_FreeRTOS/FreeRTOS/Debug/../FreeRTOS/tasks.c:1716

				/* If any ticks occurred while the scheduler was suspended then
				they should be processed now.  This ensures the tick count does
				not	slip, and that any delayed tasks are resumed at the correct
				time. */
				if( uxPendedTicks > ( UBaseType_t ) 0U )
8000200c:	9501a783          	lw	a5,-1712(gp) # 80002d20 <uxPendedTicks>
80002010:	02078863          	beqz	a5,80002040 <xTaskResumeAll+0x130>
/home/arthur/riscv_RV32IM_FreeRTOS/FreeRTOS/Debug/../FreeRTOS/tasks.c:1718
				{
					while( uxPendedTicks > ( UBaseType_t ) 0U )
80002014:	0240006f          	j	80002038 <xTaskResumeAll+0x128>
/home/arthur/riscv_RV32IM_FreeRTOS/FreeRTOS/Debug/../FreeRTOS/tasks.c:1720
					{
						if( xTaskIncrementTick() != pdFALSE )
80002018:	05c000ef          	jal	ra,80002074 <xTaskIncrementTick>
8000201c:	00050793          	mv	a5,a0
80002020:	00078663          	beqz	a5,8000202c <xTaskResumeAll+0x11c>
/home/arthur/riscv_RV32IM_FreeRTOS/FreeRTOS/Debug/../FreeRTOS/tasks.c:1722
						{
							xYieldPending = pdTRUE;
80002024:	00100713          	li	a4,1
80002028:	94e1aa23          	sw	a4,-1708(gp) # 80002d24 <xYieldPending>
/home/arthur/riscv_RV32IM_FreeRTOS/FreeRTOS/Debug/../FreeRTOS/tasks.c:1728
						}
						else
						{
							mtCOVERAGE_TEST_MARKER();
						}
						--uxPendedTicks;
8000202c:	9501a783          	lw	a5,-1712(gp) # 80002d20 <uxPendedTicks>
80002030:	fff78713          	addi	a4,a5,-1
80002034:	94e1a823          	sw	a4,-1712(gp) # 80002d20 <uxPendedTicks>
/home/arthur/riscv_RV32IM_FreeRTOS/FreeRTOS/Debug/../FreeRTOS/tasks.c:1718
					while( uxPendedTicks > ( UBaseType_t ) 0U )
80002038:	9501a783          	lw	a5,-1712(gp) # 80002d20 <uxPendedTicks>
8000203c:	fc079ee3          	bnez	a5,80002018 <xTaskResumeAll+0x108>
/home/arthur/riscv_RV32IM_FreeRTOS/FreeRTOS/Debug/../FreeRTOS/tasks.c:1736
				else
				{
					mtCOVERAGE_TEST_MARKER();
				}

				if( xYieldPending == pdTRUE )
80002040:	9541a703          	lw	a4,-1708(gp) # 80002d24 <xYieldPending>
80002044:	00100793          	li	a5,1
80002048:	00f71863          	bne	a4,a5,80002058 <xTaskResumeAll+0x148>
/home/arthur/riscv_RV32IM_FreeRTOS/FreeRTOS/Debug/../FreeRTOS/tasks.c:1740
				{
					#if( configUSE_PREEMPTION != 0 )
					{
						xAlreadyYielded = pdTRUE;
8000204c:	00100793          	li	a5,1
80002050:	fef42623          	sw	a5,-20(s0)
/home/arthur/riscv_RV32IM_FreeRTOS/FreeRTOS/Debug/../FreeRTOS/tasks.c:1743
					}
					#endif
					taskYIELD_IF_USING_PREEMPTION();
80002054:	f84ff0ef          	jal	ra,800017d8 <vPortYield>
/home/arthur/riscv_RV32IM_FreeRTOS/FreeRTOS/Debug/../FreeRTOS/tasks.c:1756
		else
		{
			mtCOVERAGE_TEST_MARKER();
		}
	}
	taskEXIT_CRITICAL();
80002058:	afcff0ef          	jal	ra,80001354 <vPortExitCritical>
/home/arthur/riscv_RV32IM_FreeRTOS/FreeRTOS/Debug/../FreeRTOS/tasks.c:1758

	return xAlreadyYielded;
8000205c:	fec42783          	lw	a5,-20(s0)
/home/arthur/riscv_RV32IM_FreeRTOS/FreeRTOS/Debug/../FreeRTOS/tasks.c:1759
}
80002060:	00078513          	mv	a0,a5
80002064:	01c12083          	lw	ra,28(sp)
80002068:	01812403          	lw	s0,24(sp)
8000206c:	02010113          	addi	sp,sp,32
80002070:	00008067          	ret

80002074 <xTaskIncrementTick>:
xTaskIncrementTick():
/home/arthur/riscv_RV32IM_FreeRTOS/FreeRTOS/Debug/../FreeRTOS/tasks.c:1938

#endif /* configUSE_TICKLESS_IDLE */
/*----------------------------------------------------------*/

BaseType_t xTaskIncrementTick( void )
{
80002074:	fd010113          	addi	sp,sp,-48
80002078:	02112623          	sw	ra,44(sp)
8000207c:	02812423          	sw	s0,40(sp)
80002080:	03010413          	addi	s0,sp,48
/home/arthur/riscv_RV32IM_FreeRTOS/FreeRTOS/Debug/../FreeRTOS/tasks.c:1941
TCB_t * pxTCB;
TickType_t xItemValue;
BaseType_t xSwitchRequired = pdFALSE;
80002084:	fe042623          	sw	zero,-20(s0)
/home/arthur/riscv_RV32IM_FreeRTOS/FreeRTOS/Debug/../FreeRTOS/tasks.c:1947

	/* Called by the portable layer each time a tick interrupt occurs.
	Increments the tick then checks to see if the new tick value will cause any
	tasks to be unblocked. */
	traceTASK_INCREMENT_TICK( xTickCount );
	if( uxSchedulerSuspended == ( UBaseType_t ) pdFALSE )
80002088:	9641a783          	lw	a5,-1692(gp) # 80002d34 <uxSchedulerSuspended>
8000208c:	1a079063          	bnez	a5,8000222c <xTaskIncrementTick+0x1b8>
/home/arthur/riscv_RV32IM_FreeRTOS/FreeRTOS/Debug/../FreeRTOS/tasks.c:1951
	{
		/* Increment the RTOS tick, switching the delayed and overflowed
		delayed lists if it wraps to 0. */
		++xTickCount;
80002090:	9441a783          	lw	a5,-1724(gp) # 80002d14 <xTickCount>
80002094:	00178713          	addi	a4,a5,1
80002098:	94e1a223          	sw	a4,-1724(gp) # 80002d14 <xTickCount>
/home/arthur/riscv_RV32IM_FreeRTOS/FreeRTOS/Debug/../FreeRTOS/tasks.c:1956

		{
			/* Minor optimisation.  The tick count cannot change in this
			block. */
			const TickType_t xConstTickCount = xTickCount;
8000209c:	9441a783          	lw	a5,-1724(gp) # 80002d14 <xTickCount>
800020a0:	fef42423          	sw	a5,-24(s0)
/home/arthur/riscv_RV32IM_FreeRTOS/FreeRTOS/Debug/../FreeRTOS/tasks.c:1958

			if( xConstTickCount == ( TickType_t ) 0U )
800020a4:	fe842783          	lw	a5,-24(s0)
800020a8:	04079063          	bnez	a5,800020e8 <xTaskIncrementTick+0x74>
/home/arthur/riscv_RV32IM_FreeRTOS/FreeRTOS/Debug/../FreeRTOS/tasks.c:1960
			{
				taskSWITCH_DELAYED_LISTS();
800020ac:	9341a783          	lw	a5,-1740(gp) # 80002d04 <pxDelayedTaskList>
800020b0:	0007a783          	lw	a5,0(a5)
800020b4:	00078663          	beqz	a5,800020c0 <xTaskIncrementTick+0x4c>
/home/arthur/riscv_RV32IM_FreeRTOS/FreeRTOS/Debug/../FreeRTOS/tasks.c:1960 (discriminator 1)
800020b8:	30047073          	csrci	mstatus,8
800020bc:	0000006f          	j	800020bc <xTaskIncrementTick+0x48>
/home/arthur/riscv_RV32IM_FreeRTOS/FreeRTOS/Debug/../FreeRTOS/tasks.c:1960 (discriminator 2)
800020c0:	9341a783          	lw	a5,-1740(gp) # 80002d04 <pxDelayedTaskList>
800020c4:	fef42223          	sw	a5,-28(s0)
800020c8:	9381a703          	lw	a4,-1736(gp) # 80002d08 <pxOverflowDelayedTaskList>
800020cc:	92e1aa23          	sw	a4,-1740(gp) # 80002d04 <pxDelayedTaskList>
800020d0:	fe442703          	lw	a4,-28(s0)
800020d4:	92e1ac23          	sw	a4,-1736(gp) # 80002d08 <pxOverflowDelayedTaskList>
800020d8:	9581a783          	lw	a5,-1704(gp) # 80002d28 <xNumOfOverflows>
800020dc:	00178713          	addi	a4,a5,1
800020e0:	94e1ac23          	sw	a4,-1704(gp) # 80002d28 <xNumOfOverflows>
800020e4:	6c8000ef          	jal	ra,800027ac <prvResetNextTaskUnblockTime>
/home/arthur/riscv_RV32IM_FreeRTOS/FreeRTOS/Debug/../FreeRTOS/tasks.c:1971

			/* See if this tick has made a timeout expire.  Tasks are stored in
			the	queue in the order of their wake time - meaning once one task
			has been found whose block time has not expired there is no need to
			look any further down the list. */
			if( xConstTickCount >= xNextTaskUnblockTime )
800020e8:	9601a783          	lw	a5,-1696(gp) # 80002d30 <xNextTaskUnblockTime>
800020ec:	fe842703          	lw	a4,-24(s0)
800020f0:	10f76063          	bltu	a4,a5,800021f0 <xTaskIncrementTick+0x17c>
/home/arthur/riscv_RV32IM_FreeRTOS/FreeRTOS/Debug/../FreeRTOS/tasks.c:1975
			{
				for( ;; )
				{
					if( listLIST_IS_EMPTY( pxDelayedTaskList ) != pdFALSE )
800020f4:	9341a783          	lw	a5,-1740(gp) # 80002d04 <pxDelayedTaskList>
800020f8:	0007a783          	lw	a5,0(a5)
800020fc:	00079663          	bnez	a5,80002108 <xTaskIncrementTick+0x94>
/home/arthur/riscv_RV32IM_FreeRTOS/FreeRTOS/Debug/../FreeRTOS/tasks.c:1975 (discriminator 1)
80002100:	00100793          	li	a5,1
80002104:	0080006f          	j	8000210c <xTaskIncrementTick+0x98>
/home/arthur/riscv_RV32IM_FreeRTOS/FreeRTOS/Debug/../FreeRTOS/tasks.c:1975 (discriminator 2)
80002108:	00000793          	li	a5,0
/home/arthur/riscv_RV32IM_FreeRTOS/FreeRTOS/Debug/../FreeRTOS/tasks.c:1975 (discriminator 4)
8000210c:	00078863          	beqz	a5,8000211c <xTaskIncrementTick+0xa8>
/home/arthur/riscv_RV32IM_FreeRTOS/FreeRTOS/Debug/../FreeRTOS/tasks.c:1982
						/* The delayed list is empty.  Set xNextTaskUnblockTime
						to the maximum possible value so it is extremely
						unlikely that the
						if( xTickCount >= xNextTaskUnblockTime ) test will pass
						next time through. */
						xNextTaskUnblockTime = portMAX_DELAY;
80002110:	fff00713          	li	a4,-1
80002114:	96e1a023          	sw	a4,-1696(gp) # 80002d30 <xNextTaskUnblockTime>
/home/arthur/riscv_RV32IM_FreeRTOS/FreeRTOS/Debug/../FreeRTOS/tasks.c:1983
						break;
80002118:	0d80006f          	j	800021f0 <xTaskIncrementTick+0x17c>
/home/arthur/riscv_RV32IM_FreeRTOS/FreeRTOS/Debug/../FreeRTOS/tasks.c:1991
					{
						/* The delayed list is not empty, get the value of the
						item at the head of the delayed list.  This is the time
						at which the task at the head of the delayed list must
						be removed from the Blocked state. */
						pxTCB = ( TCB_t * ) listGET_OWNER_OF_HEAD_ENTRY( pxDelayedTaskList );
8000211c:	9341a783          	lw	a5,-1740(gp) # 80002d04 <pxDelayedTaskList>
80002120:	00c7a783          	lw	a5,12(a5)
80002124:	00c7a783          	lw	a5,12(a5)
80002128:	fef42023          	sw	a5,-32(s0)
/home/arthur/riscv_RV32IM_FreeRTOS/FreeRTOS/Debug/../FreeRTOS/tasks.c:1992
						xItemValue = listGET_LIST_ITEM_VALUE( &( pxTCB->xGenericListItem ) );
8000212c:	fe042783          	lw	a5,-32(s0)
80002130:	0047a783          	lw	a5,4(a5)
80002134:	fcf42e23          	sw	a5,-36(s0)
/home/arthur/riscv_RV32IM_FreeRTOS/FreeRTOS/Debug/../FreeRTOS/tasks.c:1994

						if( xConstTickCount < xItemValue )
80002138:	fe842703          	lw	a4,-24(s0)
8000213c:	fdc42783          	lw	a5,-36(s0)
80002140:	00f77863          	bgeu	a4,a5,80002150 <xTaskIncrementTick+0xdc>
/home/arthur/riscv_RV32IM_FreeRTOS/FreeRTOS/Debug/../FreeRTOS/tasks.c:2001
							/* It is not time to unblock this item yet, but the
							item value is the time at which the task at the head
							of the blocked list must be removed from the Blocked
							state -	so record the item value in
							xNextTaskUnblockTime. */
							xNextTaskUnblockTime = xItemValue;
80002144:	fdc42703          	lw	a4,-36(s0)
80002148:	96e1a023          	sw	a4,-1696(gp) # 80002d30 <xNextTaskUnblockTime>
/home/arthur/riscv_RV32IM_FreeRTOS/FreeRTOS/Debug/../FreeRTOS/tasks.c:2002
							break;
8000214c:	0a40006f          	j	800021f0 <xTaskIncrementTick+0x17c>
/home/arthur/riscv_RV32IM_FreeRTOS/FreeRTOS/Debug/../FreeRTOS/tasks.c:2010
						{
							mtCOVERAGE_TEST_MARKER();
						}

						/* It is time to remove the item from the Blocked state. */
						( void ) uxListRemove( &( pxTCB->xGenericListItem ) );
80002150:	fe042783          	lw	a5,-32(s0)
80002154:	00478793          	addi	a5,a5,4
80002158:	00078513          	mv	a0,a5
8000215c:	88dff0ef          	jal	ra,800019e8 <uxListRemove>
/home/arthur/riscv_RV32IM_FreeRTOS/FreeRTOS/Debug/../FreeRTOS/tasks.c:2014

						/* Is the task waiting on an event also?  If so remove
						it from the event list. */
						if( listLIST_ITEM_CONTAINER( &( pxTCB->xEventListItem ) ) != NULL )
80002160:	fe042783          	lw	a5,-32(s0)
80002164:	0287a783          	lw	a5,40(a5)
80002168:	00078a63          	beqz	a5,8000217c <xTaskIncrementTick+0x108>
/home/arthur/riscv_RV32IM_FreeRTOS/FreeRTOS/Debug/../FreeRTOS/tasks.c:2016
						{
							( void ) uxListRemove( &( pxTCB->xEventListItem ) );
8000216c:	fe042783          	lw	a5,-32(s0)
80002170:	01878793          	addi	a5,a5,24
80002174:	00078513          	mv	a0,a5
80002178:	871ff0ef          	jal	ra,800019e8 <uxListRemove>
/home/arthur/riscv_RV32IM_FreeRTOS/FreeRTOS/Debug/../FreeRTOS/tasks.c:2025
							mtCOVERAGE_TEST_MARKER();
						}

						/* Place the unblocked task into the appropriate ready
						list. */
						prvAddTaskToReadyList( pxTCB );
8000217c:	fe042783          	lw	a5,-32(s0)
80002180:	02c7a703          	lw	a4,44(a5)
80002184:	9481a783          	lw	a5,-1720(gp) # 80002d18 <uxTopReadyPriority>
80002188:	00e7f863          	bgeu	a5,a4,80002198 <xTaskIncrementTick+0x124>
/home/arthur/riscv_RV32IM_FreeRTOS/FreeRTOS/Debug/../FreeRTOS/tasks.c:2025 (discriminator 1)
8000218c:	fe042783          	lw	a5,-32(s0)
80002190:	02c7a703          	lw	a4,44(a5)
80002194:	94e1a423          	sw	a4,-1720(gp) # 80002d18 <uxTopReadyPriority>
/home/arthur/riscv_RV32IM_FreeRTOS/FreeRTOS/Debug/../FreeRTOS/tasks.c:2025 (discriminator 3)
80002198:	fe042783          	lw	a5,-32(s0)
8000219c:	02c7a703          	lw	a4,44(a5)
800021a0:	00070793          	mv	a5,a4
800021a4:	00279793          	slli	a5,a5,0x2
800021a8:	00e787b3          	add	a5,a5,a4
800021ac:	00279793          	slli	a5,a5,0x2
800021b0:	8001c737          	lui	a4,0x8001c
800021b4:	d4070713          	addi	a4,a4,-704 # 8001bd40 <__stack_top+0xfffdff30>
800021b8:	00e78733          	add	a4,a5,a4
800021bc:	fe042783          	lw	a5,-32(s0)
800021c0:	00478793          	addi	a5,a5,4
800021c4:	00078593          	mv	a1,a5
800021c8:	00070513          	mv	a0,a4
800021cc:	ec0ff0ef          	jal	ra,8000188c <vListInsertEnd>
/home/arthur/riscv_RV32IM_FreeRTOS/FreeRTOS/Debug/../FreeRTOS/tasks.c:2035 (discriminator 3)
						{
							/* Preemption is on, but a context switch should
							only be performed if the unblocked task has a
							priority that is equal to or higher than the
							currently executing task. */
							if( pxTCB->uxPriority >= pxCurrentTCB->uxPriority )
800021d0:	fe042783          	lw	a5,-32(s0)
800021d4:	02c7a703          	lw	a4,44(a5)
800021d8:	9301a783          	lw	a5,-1744(gp) # 80002d00 <pxCurrentTCB>
800021dc:	02c7a783          	lw	a5,44(a5)
800021e0:	f0f76ae3          	bltu	a4,a5,800020f4 <xTaskIncrementTick+0x80>
/home/arthur/riscv_RV32IM_FreeRTOS/FreeRTOS/Debug/../FreeRTOS/tasks.c:2037
							{
								xSwitchRequired = pdTRUE;
800021e4:	00100793          	li	a5,1
800021e8:	fef42623          	sw	a5,-20(s0)
/home/arthur/riscv_RV32IM_FreeRTOS/FreeRTOS/Debug/../FreeRTOS/tasks.c:1975
					if( listLIST_IS_EMPTY( pxDelayedTaskList ) != pdFALSE )
800021ec:	f09ff06f          	j	800020f4 <xTaskIncrementTick+0x80>
/home/arthur/riscv_RV32IM_FreeRTOS/FreeRTOS/Debug/../FreeRTOS/tasks.c:2055
		/* Tasks of equal priority to the currently running task will share
		processing time (time slice) if preemption is on, and the application
		writer has not explicitly turned time slicing off. */
		#if ( ( configUSE_PREEMPTION == 1 ) && ( configUSE_TIME_SLICING == 1 ) )
		{
			if( listCURRENT_LIST_LENGTH( &( pxReadyTasksLists[ pxCurrentTCB->uxPriority ] ) ) > ( UBaseType_t ) 1 )
800021f0:	9301a783          	lw	a5,-1744(gp) # 80002d00 <pxCurrentTCB>
800021f4:	02c7a703          	lw	a4,44(a5)
800021f8:	8001c7b7          	lui	a5,0x8001c
800021fc:	d4078693          	addi	a3,a5,-704 # 8001bd40 <__stack_top+0xfffdff30>
80002200:	00070793          	mv	a5,a4
80002204:	00279793          	slli	a5,a5,0x2
80002208:	00e787b3          	add	a5,a5,a4
8000220c:	00279793          	slli	a5,a5,0x2
80002210:	00f687b3          	add	a5,a3,a5
80002214:	0007a703          	lw	a4,0(a5)
80002218:	00100793          	li	a5,1
8000221c:	00e7fe63          	bgeu	a5,a4,80002238 <xTaskIncrementTick+0x1c4>
/home/arthur/riscv_RV32IM_FreeRTOS/FreeRTOS/Debug/../FreeRTOS/tasks.c:2057
			{
				xSwitchRequired = pdTRUE;
80002220:	00100793          	li	a5,1
80002224:	fef42623          	sw	a5,-20(s0)
80002228:	0100006f          	j	80002238 <xTaskIncrementTick+0x1c4>
/home/arthur/riscv_RV32IM_FreeRTOS/FreeRTOS/Debug/../FreeRTOS/tasks.c:2083
		}
		#endif /* configUSE_TICK_HOOK */
	}
	else
	{
		++uxPendedTicks;
8000222c:	9501a783          	lw	a5,-1712(gp) # 80002d20 <uxPendedTicks>
80002230:	00178713          	addi	a4,a5,1
80002234:	94e1a823          	sw	a4,-1712(gp) # 80002d20 <uxPendedTicks>
/home/arthur/riscv_RV32IM_FreeRTOS/FreeRTOS/Debug/../FreeRTOS/tasks.c:2096
		#endif
	}

	#if ( configUSE_PREEMPTION == 1 )
	{
		if( xYieldPending != pdFALSE )
80002238:	9541a783          	lw	a5,-1708(gp) # 80002d24 <xYieldPending>
8000223c:	00078663          	beqz	a5,80002248 <xTaskIncrementTick+0x1d4>
/home/arthur/riscv_RV32IM_FreeRTOS/FreeRTOS/Debug/../FreeRTOS/tasks.c:2098
		{
			xSwitchRequired = pdTRUE;
80002240:	00100793          	li	a5,1
80002244:	fef42623          	sw	a5,-20(s0)
/home/arthur/riscv_RV32IM_FreeRTOS/FreeRTOS/Debug/../FreeRTOS/tasks.c:2107
			mtCOVERAGE_TEST_MARKER();
		}
	}
	#endif /* configUSE_PREEMPTION */

	return xSwitchRequired;
80002248:	fec42783          	lw	a5,-20(s0)
/home/arthur/riscv_RV32IM_FreeRTOS/FreeRTOS/Debug/../FreeRTOS/tasks.c:2108
}
8000224c:	00078513          	mv	a0,a5
80002250:	02c12083          	lw	ra,44(sp)
80002254:	02812403          	lw	s0,40(sp)
80002258:	03010113          	addi	sp,sp,48
8000225c:	00008067          	ret

80002260 <vTaskSwitchContext>:
vTaskSwitchContext():
/home/arthur/riscv_RV32IM_FreeRTOS/FreeRTOS/Debug/../FreeRTOS/tasks.c:2202

#endif /* configUSE_APPLICATION_TASK_TAG */
/*-----------------------------------------------------------*/

void vTaskSwitchContext( void )
{
80002260:	fe010113          	addi	sp,sp,-32
80002264:	00812e23          	sw	s0,28(sp)
80002268:	02010413          	addi	s0,sp,32
/home/arthur/riscv_RV32IM_FreeRTOS/FreeRTOS/Debug/../FreeRTOS/tasks.c:2203
	if( uxSchedulerSuspended != ( UBaseType_t ) pdFALSE )
8000226c:	9641a783          	lw	a5,-1692(gp) # 80002d34 <uxSchedulerSuspended>
80002270:	00078863          	beqz	a5,80002280 <vTaskSwitchContext+0x20>
/home/arthur/riscv_RV32IM_FreeRTOS/FreeRTOS/Debug/../FreeRTOS/tasks.c:2207
	{
		/* The scheduler is currently suspended - do not allow a context
		switch. */
		xYieldPending = pdTRUE;
80002274:	00100713          	li	a4,1
80002278:	94e1aa23          	sw	a4,-1708(gp) # 80002d24 <xYieldPending>
/home/arthur/riscv_RV32IM_FreeRTOS/FreeRTOS/Debug/../FreeRTOS/tasks.c:2257
			structure specific to this task. */
			_impure_ptr = &( pxCurrentTCB->xNewLib_reent );
		}
		#endif /* configUSE_NEWLIB_REENTRANT */
	}
}
8000227c:	0c00006f          	j	8000233c <vTaskSwitchContext+0xdc>
/home/arthur/riscv_RV32IM_FreeRTOS/FreeRTOS/Debug/../FreeRTOS/tasks.c:2211
		xYieldPending = pdFALSE;
80002280:	9401aa23          	sw	zero,-1708(gp) # 80002d24 <xYieldPending>
/home/arthur/riscv_RV32IM_FreeRTOS/FreeRTOS/Debug/../FreeRTOS/tasks.c:2246
		taskSELECT_HIGHEST_PRIORITY_TASK();
80002284:	0200006f          	j	800022a4 <vTaskSwitchContext+0x44>
/home/arthur/riscv_RV32IM_FreeRTOS/FreeRTOS/Debug/../FreeRTOS/tasks.c:2246 (discriminator 4)
80002288:	9481a783          	lw	a5,-1720(gp) # 80002d18 <uxTopReadyPriority>
8000228c:	00079663          	bnez	a5,80002298 <vTaskSwitchContext+0x38>
/home/arthur/riscv_RV32IM_FreeRTOS/FreeRTOS/Debug/../FreeRTOS/tasks.c:2246 (discriminator 1)
80002290:	30047073          	csrci	mstatus,8
80002294:	0000006f          	j	80002294 <vTaskSwitchContext+0x34>
/home/arthur/riscv_RV32IM_FreeRTOS/FreeRTOS/Debug/../FreeRTOS/tasks.c:2246 (discriminator 2)
80002298:	9481a783          	lw	a5,-1720(gp) # 80002d18 <uxTopReadyPriority>
8000229c:	fff78713          	addi	a4,a5,-1
800022a0:	94e1a423          	sw	a4,-1720(gp) # 80002d18 <uxTopReadyPriority>
/home/arthur/riscv_RV32IM_FreeRTOS/FreeRTOS/Debug/../FreeRTOS/tasks.c:2246 (discriminator 3)
800022a4:	9481a703          	lw	a4,-1720(gp) # 80002d18 <uxTopReadyPriority>
800022a8:	8001c7b7          	lui	a5,0x8001c
800022ac:	d4078693          	addi	a3,a5,-704 # 8001bd40 <__stack_top+0xfffdff30>
800022b0:	00070793          	mv	a5,a4
800022b4:	00279793          	slli	a5,a5,0x2
800022b8:	00e787b3          	add	a5,a5,a4
800022bc:	00279793          	slli	a5,a5,0x2
800022c0:	00f687b3          	add	a5,a3,a5
800022c4:	0007a783          	lw	a5,0(a5)
800022c8:	fc0780e3          	beqz	a5,80002288 <vTaskSwitchContext+0x28>
/home/arthur/riscv_RV32IM_FreeRTOS/FreeRTOS/Debug/../FreeRTOS/tasks.c:2246 (discriminator 5)
800022cc:	9481a703          	lw	a4,-1720(gp) # 80002d18 <uxTopReadyPriority>
800022d0:	00070793          	mv	a5,a4
800022d4:	00279793          	slli	a5,a5,0x2
800022d8:	00e787b3          	add	a5,a5,a4
800022dc:	00279793          	slli	a5,a5,0x2
800022e0:	8001c737          	lui	a4,0x8001c
800022e4:	d4070713          	addi	a4,a4,-704 # 8001bd40 <__stack_top+0xfffdff30>
800022e8:	00e787b3          	add	a5,a5,a4
800022ec:	fef42623          	sw	a5,-20(s0)
800022f0:	fec42783          	lw	a5,-20(s0)
800022f4:	0047a783          	lw	a5,4(a5)
800022f8:	0047a703          	lw	a4,4(a5)
800022fc:	fec42783          	lw	a5,-20(s0)
80002300:	00e7a223          	sw	a4,4(a5)
80002304:	fec42783          	lw	a5,-20(s0)
80002308:	0047a703          	lw	a4,4(a5)
8000230c:	fec42783          	lw	a5,-20(s0)
80002310:	00878793          	addi	a5,a5,8
80002314:	00f71c63          	bne	a4,a5,8000232c <vTaskSwitchContext+0xcc>
/home/arthur/riscv_RV32IM_FreeRTOS/FreeRTOS/Debug/../FreeRTOS/tasks.c:2246 (discriminator 6)
80002318:	fec42783          	lw	a5,-20(s0)
8000231c:	0047a783          	lw	a5,4(a5)
80002320:	0047a703          	lw	a4,4(a5)
80002324:	fec42783          	lw	a5,-20(s0)
80002328:	00e7a223          	sw	a4,4(a5)
/home/arthur/riscv_RV32IM_FreeRTOS/FreeRTOS/Debug/../FreeRTOS/tasks.c:2246 (discriminator 8)
8000232c:	fec42783          	lw	a5,-20(s0)
80002330:	0047a783          	lw	a5,4(a5)
80002334:	00c7a703          	lw	a4,12(a5)
80002338:	92e1a823          	sw	a4,-1744(gp) # 80002d00 <pxCurrentTCB>
/home/arthur/riscv_RV32IM_FreeRTOS/FreeRTOS/Debug/../FreeRTOS/tasks.c:2257
}
8000233c:	00000013          	nop
80002340:	01c12403          	lw	s0,28(sp)
80002344:	02010113          	addi	sp,sp,32
80002348:	00008067          	ret

8000234c <prvIdleTask>:
prvIdleTask():
/home/arthur/riscv_RV32IM_FreeRTOS/FreeRTOS/Debug/../FreeRTOS/tasks.c:2689
 *
 * void prvIdleTask( void *pvParameters );
 *
 */
static portTASK_FUNCTION( prvIdleTask, pvParameters )
{
8000234c:	fe010113          	addi	sp,sp,-32
80002350:	00112e23          	sw	ra,28(sp)
80002354:	00812c23          	sw	s0,24(sp)
80002358:	02010413          	addi	s0,sp,32
8000235c:	fea42623          	sw	a0,-20(s0)
/home/arthur/riscv_RV32IM_FreeRTOS/FreeRTOS/Debug/../FreeRTOS/tasks.c:2696
	( void ) pvParameters;

	for( ;; )
	{
		/* See if any tasks have been deleted. */
		prvCheckTasksWaitingTermination();
80002360:	21c000ef          	jal	ra,8000257c <prvCheckTasksWaitingTermination>
/home/arthur/riscv_RV32IM_FreeRTOS/FreeRTOS/Debug/../FreeRTOS/tasks.c:2719

			A critical region is not required here as we are just reading from
			the list, and an occasional incorrect value will not matter.  If
			the ready list at the idle priority contains more than one task
			then a task other than the idle task is ready to execute. */
			if( listCURRENT_LIST_LENGTH( &( pxReadyTasksLists[ tskIDLE_PRIORITY ] ) ) > ( UBaseType_t ) 1 )
80002364:	8001c7b7          	lui	a5,0x8001c
80002368:	d4078793          	addi	a5,a5,-704 # 8001bd40 <__stack_top+0xfffdff30>
8000236c:	0007a703          	lw	a4,0(a5)
80002370:	00100793          	li	a5,1
80002374:	00e7f463          	bgeu	a5,a4,8000237c <prvIdleTask+0x30>
/home/arthur/riscv_RV32IM_FreeRTOS/FreeRTOS/Debug/../FreeRTOS/tasks.c:2721
			{
				taskYIELD();
80002378:	c60ff0ef          	jal	ra,800017d8 <vPortYield>
/home/arthur/riscv_RV32IM_FreeRTOS/FreeRTOS/Debug/../FreeRTOS/tasks.c:2739
			/* Call the user defined function from within the idle task.  This
			allows the application designer to add background functionality
			without the overhead of a separate task.
			NOTE: vApplicationIdleHook() MUST NOT, UNDER ANY CIRCUMSTANCES,
			CALL A FUNCTION THAT MIGHT BLOCK. */
			vApplicationIdleHook();
8000237c:	630000ef          	jal	ra,800029ac <vApplicationIdleHook>
/home/arthur/riscv_RV32IM_FreeRTOS/FreeRTOS/Debug/../FreeRTOS/tasks.c:2696
		prvCheckTasksWaitingTermination();
80002380:	fe1ff06f          	j	80002360 <prvIdleTask+0x14>

80002384 <prvInitialiseTCBVariables>:
prvInitialiseTCBVariables():
/home/arthur/riscv_RV32IM_FreeRTOS/FreeRTOS/Debug/../FreeRTOS/tasks.c:2832

#endif /* configUSE_TICKLESS_IDLE */
/*-----------------------------------------------------------*/

static void prvInitialiseTCBVariables( TCB_t * const pxTCB, const char * const pcName, UBaseType_t uxPriority, const MemoryRegion_t * const xRegions, const uint16_t usStackDepth ) /*lint !e971 Unqualified char types are allowed for strings and single characters only. */
{
80002384:	fc010113          	addi	sp,sp,-64
80002388:	02112e23          	sw	ra,60(sp)
8000238c:	02812c23          	sw	s0,56(sp)
80002390:	04010413          	addi	s0,sp,64
80002394:	fca42e23          	sw	a0,-36(s0)
80002398:	fcb42c23          	sw	a1,-40(s0)
8000239c:	fcc42a23          	sw	a2,-44(s0)
800023a0:	fcd42823          	sw	a3,-48(s0)
800023a4:	00070793          	mv	a5,a4
800023a8:	fcf41723          	sh	a5,-50(s0)
/home/arthur/riscv_RV32IM_FreeRTOS/FreeRTOS/Debug/../FreeRTOS/tasks.c:2836
UBaseType_t x;

	/* Store the task name in the TCB. */
	for( x = ( UBaseType_t ) 0; x < ( UBaseType_t ) configMAX_TASK_NAME_LEN; x++ )
800023ac:	fe042623          	sw	zero,-20(s0)
800023b0:	0440006f          	j	800023f4 <prvInitialiseTCBVariables+0x70>
/home/arthur/riscv_RV32IM_FreeRTOS/FreeRTOS/Debug/../FreeRTOS/tasks.c:2838
	{
		pxTCB->pcTaskName[ x ] = pcName[ x ];
800023b4:	fd842703          	lw	a4,-40(s0)
800023b8:	fec42783          	lw	a5,-20(s0)
800023bc:	00f707b3          	add	a5,a4,a5
800023c0:	00078703          	lb	a4,0(a5)
800023c4:	fdc42683          	lw	a3,-36(s0)
800023c8:	fec42783          	lw	a5,-20(s0)
800023cc:	00f687b3          	add	a5,a3,a5
800023d0:	02e78a23          	sb	a4,52(a5)
/home/arthur/riscv_RV32IM_FreeRTOS/FreeRTOS/Debug/../FreeRTOS/tasks.c:2843

		/* Don't copy all configMAX_TASK_NAME_LEN if the string is shorter than
		configMAX_TASK_NAME_LEN characters just in case the memory after the
		string is not accessible (extremely unlikely). */
		if( pcName[ x ] == 0x00 )
800023d4:	fd842703          	lw	a4,-40(s0)
800023d8:	fec42783          	lw	a5,-20(s0)
800023dc:	00f707b3          	add	a5,a4,a5
800023e0:	00078783          	lb	a5,0(a5)
800023e4:	02078063          	beqz	a5,80002404 <prvInitialiseTCBVariables+0x80>
/home/arthur/riscv_RV32IM_FreeRTOS/FreeRTOS/Debug/../FreeRTOS/tasks.c:2836 (discriminator 2)
	for( x = ( UBaseType_t ) 0; x < ( UBaseType_t ) configMAX_TASK_NAME_LEN; x++ )
800023e8:	fec42783          	lw	a5,-20(s0)
800023ec:	00178793          	addi	a5,a5,1
800023f0:	fef42623          	sw	a5,-20(s0)
/home/arthur/riscv_RV32IM_FreeRTOS/FreeRTOS/Debug/../FreeRTOS/tasks.c:2836 (discriminator 1)
800023f4:	fec42703          	lw	a4,-20(s0)
800023f8:	00f00793          	li	a5,15
800023fc:	fae7fce3          	bgeu	a5,a4,800023b4 <prvInitialiseTCBVariables+0x30>
80002400:	0080006f          	j	80002408 <prvInitialiseTCBVariables+0x84>
/home/arthur/riscv_RV32IM_FreeRTOS/FreeRTOS/Debug/../FreeRTOS/tasks.c:2845
		{
			break;
80002404:	00000013          	nop
/home/arthur/riscv_RV32IM_FreeRTOS/FreeRTOS/Debug/../FreeRTOS/tasks.c:2855
		}
	}

	/* Ensure the name string is terminated in the case that the string length
	was greater or equal to configMAX_TASK_NAME_LEN. */
	pxTCB->pcTaskName[ configMAX_TASK_NAME_LEN - 1 ] = '\0';
80002408:	fdc42783          	lw	a5,-36(s0)
8000240c:	040781a3          	sb	zero,67(a5)
/home/arthur/riscv_RV32IM_FreeRTOS/FreeRTOS/Debug/../FreeRTOS/tasks.c:2859

	/* This is used as an array index so must ensure it's not too large.  First
	remove the privilege bit if one is present. */
	if( uxPriority >= ( UBaseType_t ) configMAX_PRIORITIES )
80002410:	fd442703          	lw	a4,-44(s0)
80002414:	00400793          	li	a5,4
80002418:	00e7f663          	bgeu	a5,a4,80002424 <prvInitialiseTCBVariables+0xa0>
/home/arthur/riscv_RV32IM_FreeRTOS/FreeRTOS/Debug/../FreeRTOS/tasks.c:2861
	{
		uxPriority = ( UBaseType_t ) configMAX_PRIORITIES - ( UBaseType_t ) 1U;
8000241c:	00400793          	li	a5,4
80002420:	fcf42a23          	sw	a5,-44(s0)
/home/arthur/riscv_RV32IM_FreeRTOS/FreeRTOS/Debug/../FreeRTOS/tasks.c:2868
	else
	{
		mtCOVERAGE_TEST_MARKER();
	}

	pxTCB->uxPriority = uxPriority;
80002424:	fdc42783          	lw	a5,-36(s0)
80002428:	fd442703          	lw	a4,-44(s0)
8000242c:	02e7a623          	sw	a4,44(a5)
/home/arthur/riscv_RV32IM_FreeRTOS/FreeRTOS/Debug/../FreeRTOS/tasks.c:2871
	#if ( configUSE_MUTEXES == 1 )
	{
		pxTCB->uxBasePriority = uxPriority;
80002430:	fdc42783          	lw	a5,-36(s0)
80002434:	fd442703          	lw	a4,-44(s0)
80002438:	04e7a823          	sw	a4,80(a5)
/home/arthur/riscv_RV32IM_FreeRTOS/FreeRTOS/Debug/../FreeRTOS/tasks.c:2872
		pxTCB->uxMutexesHeld = 0;
8000243c:	fdc42783          	lw	a5,-36(s0)
80002440:	0407aa23          	sw	zero,84(a5)
/home/arthur/riscv_RV32IM_FreeRTOS/FreeRTOS/Debug/../FreeRTOS/tasks.c:2876
	}
	#endif /* configUSE_MUTEXES */

	vListInitialiseItem( &( pxTCB->xGenericListItem ) );
80002444:	fdc42783          	lw	a5,-36(s0)
80002448:	00478793          	addi	a5,a5,4
8000244c:	00078513          	mv	a0,a5
80002450:	c14ff0ef          	jal	ra,80001864 <vListInitialiseItem>
/home/arthur/riscv_RV32IM_FreeRTOS/FreeRTOS/Debug/../FreeRTOS/tasks.c:2877
	vListInitialiseItem( &( pxTCB->xEventListItem ) );
80002454:	fdc42783          	lw	a5,-36(s0)
80002458:	01878793          	addi	a5,a5,24
8000245c:	00078513          	mv	a0,a5
80002460:	c04ff0ef          	jal	ra,80001864 <vListInitialiseItem>
/home/arthur/riscv_RV32IM_FreeRTOS/FreeRTOS/Debug/../FreeRTOS/tasks.c:2881

	/* Set the pxTCB as a link back from the ListItem_t.  This is so we can get
	back to	the containing TCB from a generic item in a list. */
	listSET_LIST_ITEM_OWNER( &( pxTCB->xGenericListItem ), pxTCB );
80002464:	fdc42783          	lw	a5,-36(s0)
80002468:	fdc42703          	lw	a4,-36(s0)
8000246c:	00e7a823          	sw	a4,16(a5)
/home/arthur/riscv_RV32IM_FreeRTOS/FreeRTOS/Debug/../FreeRTOS/tasks.c:2884

	/* Event lists are always in priority order. */
	listSET_LIST_ITEM_VALUE( &( pxTCB->xEventListItem ), ( TickType_t ) configMAX_PRIORITIES - ( TickType_t ) uxPriority ); /*lint !e961 MISRA exception as the casts are only redundant for some ports. */
80002470:	00500713          	li	a4,5
80002474:	fd442783          	lw	a5,-44(s0)
80002478:	40f70733          	sub	a4,a4,a5
8000247c:	fdc42783          	lw	a5,-36(s0)
80002480:	00e7ac23          	sw	a4,24(a5)
/home/arthur/riscv_RV32IM_FreeRTOS/FreeRTOS/Debug/../FreeRTOS/tasks.c:2885
	listSET_LIST_ITEM_OWNER( &( pxTCB->xEventListItem ), pxTCB );
80002484:	fdc42783          	lw	a5,-36(s0)
80002488:	fdc42703          	lw	a4,-36(s0)
8000248c:	02e7a223          	sw	a4,36(a5)
/home/arthur/riscv_RV32IM_FreeRTOS/FreeRTOS/Debug/../FreeRTOS/tasks.c:2889

	#if ( portCRITICAL_NESTING_IN_TCB == 1 )
	{
		pxTCB->uxCriticalNesting = ( UBaseType_t ) 0U;
80002490:	fdc42783          	lw	a5,-36(s0)
80002494:	0407a223          	sw	zero,68(a5)
/home/arthur/riscv_RV32IM_FreeRTOS/FreeRTOS/Debug/../FreeRTOS/tasks.c:2927
	}
	#endif

	#if ( configUSE_TASK_NOTIFICATIONS == 1 )
	{
		pxTCB->ulNotifiedValue = 0;
80002498:	fdc42783          	lw	a5,-36(s0)
8000249c:	0407ac23          	sw	zero,88(a5)
/home/arthur/riscv_RV32IM_FreeRTOS/FreeRTOS/Debug/../FreeRTOS/tasks.c:2928
		pxTCB->eNotifyState = eNotWaitingNotification;
800024a0:	fdc42783          	lw	a5,-36(s0)
800024a4:	0407ae23          	sw	zero,92(a5)
/home/arthur/riscv_RV32IM_FreeRTOS/FreeRTOS/Debug/../FreeRTOS/tasks.c:2938
	{
		/* Initialise this task's Newlib reent structure. */
		_REENT_INIT_PTR( ( &( pxTCB->xNewLib_reent ) ) );
	}
	#endif /* configUSE_NEWLIB_REENTRANT */
}
800024a8:	00000013          	nop
800024ac:	03c12083          	lw	ra,60(sp)
800024b0:	03812403          	lw	s0,56(sp)
800024b4:	04010113          	addi	sp,sp,64
800024b8:	00008067          	ret

800024bc <prvInitialiseTaskLists>:
prvInitialiseTaskLists():
/home/arthur/riscv_RV32IM_FreeRTOS/FreeRTOS/Debug/../FreeRTOS/tasks.c:2997

#endif /* portUSING_MPU_WRAPPERS */
/*-----------------------------------------------------------*/

static void prvInitialiseTaskLists( void )
{
800024bc:	fe010113          	addi	sp,sp,-32
800024c0:	00112e23          	sw	ra,28(sp)
800024c4:	00812c23          	sw	s0,24(sp)
800024c8:	02010413          	addi	s0,sp,32
/home/arthur/riscv_RV32IM_FreeRTOS/FreeRTOS/Debug/../FreeRTOS/tasks.c:3000
UBaseType_t uxPriority;

	for( uxPriority = ( UBaseType_t ) 0U; uxPriority < ( UBaseType_t ) configMAX_PRIORITIES; uxPriority++ )
800024cc:	fe042623          	sw	zero,-20(s0)
800024d0:	0380006f          	j	80002508 <prvInitialiseTaskLists+0x4c>
/home/arthur/riscv_RV32IM_FreeRTOS/FreeRTOS/Debug/../FreeRTOS/tasks.c:3002 (discriminator 3)
	{
		vListInitialise( &( pxReadyTasksLists[ uxPriority ] ) );
800024d4:	fec42703          	lw	a4,-20(s0)
800024d8:	00070793          	mv	a5,a4
800024dc:	00279793          	slli	a5,a5,0x2
800024e0:	00e787b3          	add	a5,a5,a4
800024e4:	00279793          	slli	a5,a5,0x2
800024e8:	8001c737          	lui	a4,0x8001c
800024ec:	d4070713          	addi	a4,a4,-704 # 8001bd40 <__stack_top+0xfffdff30>
800024f0:	00e787b3          	add	a5,a5,a4
800024f4:	00078513          	mv	a0,a5
800024f8:	b08ff0ef          	jal	ra,80001800 <vListInitialise>
/home/arthur/riscv_RV32IM_FreeRTOS/FreeRTOS/Debug/../FreeRTOS/tasks.c:3000 (discriminator 3)
	for( uxPriority = ( UBaseType_t ) 0U; uxPriority < ( UBaseType_t ) configMAX_PRIORITIES; uxPriority++ )
800024fc:	fec42783          	lw	a5,-20(s0)
80002500:	00178793          	addi	a5,a5,1
80002504:	fef42623          	sw	a5,-20(s0)
/home/arthur/riscv_RV32IM_FreeRTOS/FreeRTOS/Debug/../FreeRTOS/tasks.c:3000 (discriminator 1)
80002508:	fec42703          	lw	a4,-20(s0)
8000250c:	00400793          	li	a5,4
80002510:	fce7f2e3          	bgeu	a5,a4,800024d4 <prvInitialiseTaskLists+0x18>
/home/arthur/riscv_RV32IM_FreeRTOS/FreeRTOS/Debug/../FreeRTOS/tasks.c:3005
	}

	vListInitialise( &xDelayedTaskList1 );
80002514:	8001c7b7          	lui	a5,0x8001c
80002518:	da478513          	addi	a0,a5,-604 # 8001bda4 <__stack_top+0xfffdff94>
8000251c:	ae4ff0ef          	jal	ra,80001800 <vListInitialise>
/home/arthur/riscv_RV32IM_FreeRTOS/FreeRTOS/Debug/../FreeRTOS/tasks.c:3006
	vListInitialise( &xDelayedTaskList2 );
80002520:	8001c7b7          	lui	a5,0x8001c
80002524:	db878513          	addi	a0,a5,-584 # 8001bdb8 <__stack_top+0xfffdffa8>
80002528:	ad8ff0ef          	jal	ra,80001800 <vListInitialise>
/home/arthur/riscv_RV32IM_FreeRTOS/FreeRTOS/Debug/../FreeRTOS/tasks.c:3007
	vListInitialise( &xPendingReadyList );
8000252c:	8001c7b7          	lui	a5,0x8001c
80002530:	dcc78513          	addi	a0,a5,-564 # 8001bdcc <__stack_top+0xfffdffbc>
80002534:	accff0ef          	jal	ra,80001800 <vListInitialise>
/home/arthur/riscv_RV32IM_FreeRTOS/FreeRTOS/Debug/../FreeRTOS/tasks.c:3011

	#if ( INCLUDE_vTaskDelete == 1 )
	{
		vListInitialise( &xTasksWaitingTermination );
80002538:	8001c7b7          	lui	a5,0x8001c
8000253c:	de078513          	addi	a0,a5,-544 # 8001bde0 <__stack_top+0xfffdffd0>
80002540:	ac0ff0ef          	jal	ra,80001800 <vListInitialise>
/home/arthur/riscv_RV32IM_FreeRTOS/FreeRTOS/Debug/../FreeRTOS/tasks.c:3017
	}
	#endif /* INCLUDE_vTaskDelete */

	#if ( INCLUDE_vTaskSuspend == 1 )
	{
		vListInitialise( &xSuspendedTaskList );
80002544:	8001c7b7          	lui	a5,0x8001c
80002548:	df478513          	addi	a0,a5,-524 # 8001bdf4 <__stack_top+0xfffdffe4>
8000254c:	ab4ff0ef          	jal	ra,80001800 <vListInitialise>
/home/arthur/riscv_RV32IM_FreeRTOS/FreeRTOS/Debug/../FreeRTOS/tasks.c:3023
	}
	#endif /* INCLUDE_vTaskSuspend */

	/* Start with pxDelayedTaskList using list1 and the pxOverflowDelayedTaskList
	using list2. */
	pxDelayedTaskList = &xDelayedTaskList1;
80002550:	8001c737          	lui	a4,0x8001c
80002554:	da470713          	addi	a4,a4,-604 # 8001bda4 <__stack_top+0xfffdff94>
80002558:	92e1aa23          	sw	a4,-1740(gp) # 80002d04 <pxDelayedTaskList>
/home/arthur/riscv_RV32IM_FreeRTOS/FreeRTOS/Debug/../FreeRTOS/tasks.c:3024
	pxOverflowDelayedTaskList = &xDelayedTaskList2;
8000255c:	8001c737          	lui	a4,0x8001c
80002560:	db870713          	addi	a4,a4,-584 # 8001bdb8 <__stack_top+0xfffdffa8>
80002564:	92e1ac23          	sw	a4,-1736(gp) # 80002d08 <pxOverflowDelayedTaskList>
/home/arthur/riscv_RV32IM_FreeRTOS/FreeRTOS/Debug/../FreeRTOS/tasks.c:3025
}
80002568:	00000013          	nop
8000256c:	01c12083          	lw	ra,28(sp)
80002570:	01812403          	lw	s0,24(sp)
80002574:	02010113          	addi	sp,sp,32
80002578:	00008067          	ret

8000257c <prvCheckTasksWaitingTermination>:
prvCheckTasksWaitingTermination():
/home/arthur/riscv_RV32IM_FreeRTOS/FreeRTOS/Debug/../FreeRTOS/tasks.c:3029
/*-----------------------------------------------------------*/

static void prvCheckTasksWaitingTermination( void )
{
8000257c:	fe010113          	addi	sp,sp,-32
80002580:	00112e23          	sw	ra,28(sp)
80002584:	00812c23          	sw	s0,24(sp)
80002588:	02010413          	addi	s0,sp,32
/home/arthur/riscv_RV32IM_FreeRTOS/FreeRTOS/Debug/../FreeRTOS/tasks.c:3036
	{
		BaseType_t xListIsEmpty;

		/* ucTasksDeleted is used to prevent vTaskSuspendAll() being called
		too often in the idle task. */
		while( uxTasksDeleted > ( UBaseType_t ) 0U )
8000258c:	0780006f          	j	80002604 <prvCheckTasksWaitingTermination+0x88>
/home/arthur/riscv_RV32IM_FreeRTOS/FreeRTOS/Debug/../FreeRTOS/tasks.c:3038
		{
			vTaskSuspendAll();
80002590:	959ff0ef          	jal	ra,80001ee8 <vTaskSuspendAll>
/home/arthur/riscv_RV32IM_FreeRTOS/FreeRTOS/Debug/../FreeRTOS/tasks.c:3040
			{
				xListIsEmpty = listLIST_IS_EMPTY( &xTasksWaitingTermination );
80002594:	8001c7b7          	lui	a5,0x8001c
80002598:	de078793          	addi	a5,a5,-544 # 8001bde0 <__stack_top+0xfffdffd0>
8000259c:	0007a783          	lw	a5,0(a5)
800025a0:	0017b793          	seqz	a5,a5
800025a4:	0ff7f793          	andi	a5,a5,255
800025a8:	fef42623          	sw	a5,-20(s0)
/home/arthur/riscv_RV32IM_FreeRTOS/FreeRTOS/Debug/../FreeRTOS/tasks.c:3042
			}
			( void ) xTaskResumeAll();
800025ac:	965ff0ef          	jal	ra,80001f10 <xTaskResumeAll>
/home/arthur/riscv_RV32IM_FreeRTOS/FreeRTOS/Debug/../FreeRTOS/tasks.c:3044

			if( xListIsEmpty == pdFALSE )
800025b0:	fec42783          	lw	a5,-20(s0)
800025b4:	04079863          	bnez	a5,80002604 <prvCheckTasksWaitingTermination+0x88>
/home/arthur/riscv_RV32IM_FreeRTOS/FreeRTOS/Debug/../FreeRTOS/tasks.c:3048
			{
				TCB_t *pxTCB;

				taskENTER_CRITICAL();
800025b8:	d69fe0ef          	jal	ra,80001320 <vPortEnterCritical>
/home/arthur/riscv_RV32IM_FreeRTOS/FreeRTOS/Debug/../FreeRTOS/tasks.c:3050
				{
					pxTCB = ( TCB_t * ) listGET_OWNER_OF_HEAD_ENTRY( ( &xTasksWaitingTermination ) );
800025bc:	8001c7b7          	lui	a5,0x8001c
800025c0:	de078793          	addi	a5,a5,-544 # 8001bde0 <__stack_top+0xfffdffd0>
800025c4:	00c7a783          	lw	a5,12(a5)
800025c8:	00c7a783          	lw	a5,12(a5)
800025cc:	fef42423          	sw	a5,-24(s0)
/home/arthur/riscv_RV32IM_FreeRTOS/FreeRTOS/Debug/../FreeRTOS/tasks.c:3051
					( void ) uxListRemove( &( pxTCB->xGenericListItem ) );
800025d0:	fe842783          	lw	a5,-24(s0)
800025d4:	00478793          	addi	a5,a5,4
800025d8:	00078513          	mv	a0,a5
800025dc:	c0cff0ef          	jal	ra,800019e8 <uxListRemove>
/home/arthur/riscv_RV32IM_FreeRTOS/FreeRTOS/Debug/../FreeRTOS/tasks.c:3052
					--uxCurrentNumberOfTasks;
800025e0:	9401a783          	lw	a5,-1728(gp) # 80002d10 <uxCurrentNumberOfTasks>
800025e4:	fff78713          	addi	a4,a5,-1
800025e8:	94e1a023          	sw	a4,-1728(gp) # 80002d10 <uxCurrentNumberOfTasks>
/home/arthur/riscv_RV32IM_FreeRTOS/FreeRTOS/Debug/../FreeRTOS/tasks.c:3053
					--uxTasksDeleted;
800025ec:	93c1a783          	lw	a5,-1732(gp) # 80002d0c <uxTasksDeleted>
800025f0:	fff78713          	addi	a4,a5,-1
800025f4:	92e1ae23          	sw	a4,-1732(gp) # 80002d0c <uxTasksDeleted>
/home/arthur/riscv_RV32IM_FreeRTOS/FreeRTOS/Debug/../FreeRTOS/tasks.c:3055
				}
				taskEXIT_CRITICAL();
800025f8:	d5dfe0ef          	jal	ra,80001354 <vPortExitCritical>
/home/arthur/riscv_RV32IM_FreeRTOS/FreeRTOS/Debug/../FreeRTOS/tasks.c:3057

				prvDeleteTCB( pxTCB );
800025fc:	fe842503          	lw	a0,-24(s0)
80002600:	16c000ef          	jal	ra,8000276c <prvDeleteTCB>
/home/arthur/riscv_RV32IM_FreeRTOS/FreeRTOS/Debug/../FreeRTOS/tasks.c:3036
		while( uxTasksDeleted > ( UBaseType_t ) 0U )
80002604:	93c1a783          	lw	a5,-1732(gp) # 80002d0c <uxTasksDeleted>
80002608:	f80794e3          	bnez	a5,80002590 <prvCheckTasksWaitingTermination+0x14>
/home/arthur/riscv_RV32IM_FreeRTOS/FreeRTOS/Debug/../FreeRTOS/tasks.c:3066
				mtCOVERAGE_TEST_MARKER();
			}
		}
	}
	#endif /* vTaskDelete */
}
8000260c:	00000013          	nop
80002610:	00000013          	nop
80002614:	01c12083          	lw	ra,28(sp)
80002618:	01812403          	lw	s0,24(sp)
8000261c:	02010113          	addi	sp,sp,32
80002620:	00008067          	ret

80002624 <prvAddCurrentTaskToDelayedList>:
prvAddCurrentTaskToDelayedList():
/home/arthur/riscv_RV32IM_FreeRTOS/FreeRTOS/Debug/../FreeRTOS/tasks.c:3070
/*-----------------------------------------------------------*/

static void prvAddCurrentTaskToDelayedList( const TickType_t xTimeToWake )
{
80002624:	fe010113          	addi	sp,sp,-32
80002628:	00112e23          	sw	ra,28(sp)
8000262c:	00812c23          	sw	s0,24(sp)
80002630:	02010413          	addi	s0,sp,32
80002634:	fea42623          	sw	a0,-20(s0)
/home/arthur/riscv_RV32IM_FreeRTOS/FreeRTOS/Debug/../FreeRTOS/tasks.c:3072
	/* The list item will be inserted in wake time order. */
	listSET_LIST_ITEM_VALUE( &( pxCurrentTCB->xGenericListItem ), xTimeToWake );
80002638:	9301a783          	lw	a5,-1744(gp) # 80002d00 <pxCurrentTCB>
8000263c:	fec42703          	lw	a4,-20(s0)
80002640:	00e7a223          	sw	a4,4(a5)
/home/arthur/riscv_RV32IM_FreeRTOS/FreeRTOS/Debug/../FreeRTOS/tasks.c:3074

	if( xTimeToWake < xTickCount )
80002644:	9441a783          	lw	a5,-1724(gp) # 80002d14 <xTickCount>
80002648:	fec42703          	lw	a4,-20(s0)
8000264c:	02f77063          	bgeu	a4,a5,8000266c <prvAddCurrentTaskToDelayedList+0x48>
/home/arthur/riscv_RV32IM_FreeRTOS/FreeRTOS/Debug/../FreeRTOS/tasks.c:3077
	{
		/* Wake time has overflowed.  Place this item in the overflow list. */
		vListInsert( pxOverflowDelayedTaskList, &( pxCurrentTCB->xGenericListItem ) );
80002650:	9381a703          	lw	a4,-1736(gp) # 80002d08 <pxOverflowDelayedTaskList>
80002654:	9301a783          	lw	a5,-1744(gp) # 80002d00 <pxCurrentTCB>
80002658:	00478793          	addi	a5,a5,4
8000265c:	00078593          	mv	a1,a5
80002660:	00070513          	mv	a0,a4
80002664:	ab0ff0ef          	jal	ra,80001914 <vListInsert>
/home/arthur/riscv_RV32IM_FreeRTOS/FreeRTOS/Debug/../FreeRTOS/tasks.c:3096
		else
		{
			mtCOVERAGE_TEST_MARKER();
		}
	}
}
80002668:	0300006f          	j	80002698 <prvAddCurrentTaskToDelayedList+0x74>
/home/arthur/riscv_RV32IM_FreeRTOS/FreeRTOS/Debug/../FreeRTOS/tasks.c:3082
		vListInsert( pxDelayedTaskList, &( pxCurrentTCB->xGenericListItem ) );
8000266c:	9341a703          	lw	a4,-1740(gp) # 80002d04 <pxDelayedTaskList>
80002670:	9301a783          	lw	a5,-1744(gp) # 80002d00 <pxCurrentTCB>
80002674:	00478793          	addi	a5,a5,4
80002678:	00078593          	mv	a1,a5
8000267c:	00070513          	mv	a0,a4
80002680:	a94ff0ef          	jal	ra,80001914 <vListInsert>
/home/arthur/riscv_RV32IM_FreeRTOS/FreeRTOS/Debug/../FreeRTOS/tasks.c:3087
		if( xTimeToWake < xNextTaskUnblockTime )
80002684:	9601a783          	lw	a5,-1696(gp) # 80002d30 <xNextTaskUnblockTime>
80002688:	fec42703          	lw	a4,-20(s0)
8000268c:	00f77663          	bgeu	a4,a5,80002698 <prvAddCurrentTaskToDelayedList+0x74>
/home/arthur/riscv_RV32IM_FreeRTOS/FreeRTOS/Debug/../FreeRTOS/tasks.c:3089
			xNextTaskUnblockTime = xTimeToWake;
80002690:	fec42703          	lw	a4,-20(s0)
80002694:	96e1a023          	sw	a4,-1696(gp) # 80002d30 <xNextTaskUnblockTime>
/home/arthur/riscv_RV32IM_FreeRTOS/FreeRTOS/Debug/../FreeRTOS/tasks.c:3096
}
80002698:	00000013          	nop
8000269c:	01c12083          	lw	ra,28(sp)
800026a0:	01812403          	lw	s0,24(sp)
800026a4:	02010113          	addi	sp,sp,32
800026a8:	00008067          	ret

800026ac <prvAllocateTCBAndStack>:
prvAllocateTCBAndStack():
/home/arthur/riscv_RV32IM_FreeRTOS/FreeRTOS/Debug/../FreeRTOS/tasks.c:3100
/*-----------------------------------------------------------*/

static TCB_t *prvAllocateTCBAndStack( const uint16_t usStackDepth, StackType_t * const puxStackBuffer )
{
800026ac:	fd010113          	addi	sp,sp,-48
800026b0:	02112623          	sw	ra,44(sp)
800026b4:	02812423          	sw	s0,40(sp)
800026b8:	03010413          	addi	s0,sp,48
800026bc:	00050793          	mv	a5,a0
800026c0:	fcb42c23          	sw	a1,-40(s0)
800026c4:	fcf41f23          	sh	a5,-34(s0)
/home/arthur/riscv_RV32IM_FreeRTOS/FreeRTOS/Debug/../FreeRTOS/tasks.c:3132
	#else /* portSTACK_GROWTH */
	{
	StackType_t *pxStack;

		/* Allocate space for the stack used by the task being created. */
		pxStack = ( StackType_t * ) pvPortMallocAligned( ( ( ( size_t ) usStackDepth ) * sizeof( StackType_t ) ), puxStackBuffer ); /*lint !e961 MISRA exception as the casts are only redundant for some ports. */
800026c8:	fd842783          	lw	a5,-40(s0)
800026cc:	00079e63          	bnez	a5,800026e8 <prvAllocateTCBAndStack+0x3c>
/home/arthur/riscv_RV32IM_FreeRTOS/FreeRTOS/Debug/../FreeRTOS/tasks.c:3132 (discriminator 1)
800026d0:	fde45783          	lhu	a5,-34(s0)
800026d4:	00279793          	slli	a5,a5,0x2
800026d8:	00078513          	mv	a0,a5
800026dc:	8d1fe0ef          	jal	ra,80000fac <pvPortMalloc>
800026e0:	00050793          	mv	a5,a0
800026e4:	0080006f          	j	800026ec <prvAllocateTCBAndStack+0x40>
/home/arthur/riscv_RV32IM_FreeRTOS/FreeRTOS/Debug/../FreeRTOS/tasks.c:3132 (discriminator 2)
800026e8:	fd842783          	lw	a5,-40(s0)
/home/arthur/riscv_RV32IM_FreeRTOS/FreeRTOS/Debug/../FreeRTOS/tasks.c:3132 (discriminator 4)
800026ec:	fef42423          	sw	a5,-24(s0)
/home/arthur/riscv_RV32IM_FreeRTOS/FreeRTOS/Debug/../FreeRTOS/tasks.c:3134 (discriminator 4)

		if( pxStack != NULL )
800026f0:	fe842783          	lw	a5,-24(s0)
800026f4:	02078a63          	beqz	a5,80002728 <prvAllocateTCBAndStack+0x7c>
/home/arthur/riscv_RV32IM_FreeRTOS/FreeRTOS/Debug/../FreeRTOS/tasks.c:3138
		{
			/* Allocate space for the TCB.  Where the memory comes from depends
			on the implementation of the port malloc function. */
			pxNewTCB = ( TCB_t * ) pvPortMalloc( sizeof( TCB_t ) );
800026f8:	06000513          	li	a0,96
800026fc:	8b1fe0ef          	jal	ra,80000fac <pvPortMalloc>
80002700:	fea42623          	sw	a0,-20(s0)
/home/arthur/riscv_RV32IM_FreeRTOS/FreeRTOS/Debug/../FreeRTOS/tasks.c:3140

			if( pxNewTCB != NULL )
80002704:	fec42783          	lw	a5,-20(s0)
80002708:	00078a63          	beqz	a5,8000271c <prvAllocateTCBAndStack+0x70>
/home/arthur/riscv_RV32IM_FreeRTOS/FreeRTOS/Debug/../FreeRTOS/tasks.c:3143
			{
				/* Store the stack location in the TCB. */
				pxNewTCB->pxStack = pxStack;
8000270c:	fec42783          	lw	a5,-20(s0)
80002710:	fe842703          	lw	a4,-24(s0)
80002714:	02e7a823          	sw	a4,48(a5)
80002718:	0140006f          	j	8000272c <prvAllocateTCBAndStack+0x80>
/home/arthur/riscv_RV32IM_FreeRTOS/FreeRTOS/Debug/../FreeRTOS/tasks.c:3149
			}
			else
			{
				/* The stack cannot be used as the TCB was not created.  Free it
				again. */
				vPortFree( pxStack );
8000271c:	fe842503          	lw	a0,-24(s0)
80002720:	a6dfe0ef          	jal	ra,8000118c <vPortFree>
80002724:	0080006f          	j	8000272c <prvAllocateTCBAndStack+0x80>
/home/arthur/riscv_RV32IM_FreeRTOS/FreeRTOS/Debug/../FreeRTOS/tasks.c:3154
			}
		}
		else
		{
			pxNewTCB = NULL;
80002728:	fe042623          	sw	zero,-20(s0)
/home/arthur/riscv_RV32IM_FreeRTOS/FreeRTOS/Debug/../FreeRTOS/tasks.c:3159
		}
	}
	#endif /* portSTACK_GROWTH */

	if( pxNewTCB != NULL )
8000272c:	fec42783          	lw	a5,-20(s0)
80002730:	02078263          	beqz	a5,80002754 <prvAllocateTCBAndStack+0xa8>
/home/arthur/riscv_RV32IM_FreeRTOS/FreeRTOS/Debug/../FreeRTOS/tasks.c:3165
	{
		/* Avoid dependency on memset() if it is not required. */
		#if( ( configCHECK_FOR_STACK_OVERFLOW > 1 ) || ( configUSE_TRACE_FACILITY == 1 ) || ( INCLUDE_uxTaskGetStackHighWaterMark == 1 ) )
		{
			/* Just to help debugging. */
			( void ) memset( pxNewTCB->pxStack, ( int ) tskSTACK_FILL_BYTE, ( size_t ) usStackDepth * sizeof( StackType_t ) );
80002734:	fec42783          	lw	a5,-20(s0)
80002738:	0307a703          	lw	a4,48(a5)
8000273c:	fde45783          	lhu	a5,-34(s0)
80002740:	00279793          	slli	a5,a5,0x2
80002744:	00078613          	mv	a2,a5
80002748:	0a500593          	li	a1,165
8000274c:	00070513          	mv	a0,a4
80002750:	b30ff0ef          	jal	ra,80001a80 <memset>
/home/arthur/riscv_RV32IM_FreeRTOS/FreeRTOS/Debug/../FreeRTOS/tasks.c:3170
		}
		#endif /* ( ( configCHECK_FOR_STACK_OVERFLOW > 1 ) || ( ( configUSE_TRACE_FACILITY == 1 ) || ( INCLUDE_uxTaskGetStackHighWaterMark == 1 ) ) ) */
	}

	return pxNewTCB;
80002754:	fec42783          	lw	a5,-20(s0)
/home/arthur/riscv_RV32IM_FreeRTOS/FreeRTOS/Debug/../FreeRTOS/tasks.c:3171
}
80002758:	00078513          	mv	a0,a5
8000275c:	02c12083          	lw	ra,44(sp)
80002760:	02812403          	lw	s0,40(sp)
80002764:	03010113          	addi	sp,sp,48
80002768:	00008067          	ret

8000276c <prvDeleteTCB>:
prvDeleteTCB():
/home/arthur/riscv_RV32IM_FreeRTOS/FreeRTOS/Debug/../FreeRTOS/tasks.c:3310
/*-----------------------------------------------------------*/

#if ( INCLUDE_vTaskDelete == 1 )

	static void prvDeleteTCB( TCB_t *pxTCB )
	{
8000276c:	fe010113          	addi	sp,sp,-32
80002770:	00112e23          	sw	ra,28(sp)
80002774:	00812c23          	sw	s0,24(sp)
80002778:	02010413          	addi	s0,sp,32
8000277c:	fea42623          	sw	a0,-20(s0)
/home/arthur/riscv_RV32IM_FreeRTOS/FreeRTOS/Debug/../FreeRTOS/tasks.c:3335
				vPortFreeAligned( pxTCB->pxStack );
			}
		}
		#else
		{
			vPortFreeAligned( pxTCB->pxStack );
80002780:	fec42783          	lw	a5,-20(s0)
80002784:	0307a783          	lw	a5,48(a5)
80002788:	00078513          	mv	a0,a5
8000278c:	a01fe0ef          	jal	ra,8000118c <vPortFree>
/home/arthur/riscv_RV32IM_FreeRTOS/FreeRTOS/Debug/../FreeRTOS/tasks.c:3339
		}
		#endif

		vPortFree( pxTCB );
80002790:	fec42503          	lw	a0,-20(s0)
80002794:	9f9fe0ef          	jal	ra,8000118c <vPortFree>
/home/arthur/riscv_RV32IM_FreeRTOS/FreeRTOS/Debug/../FreeRTOS/tasks.c:3340
	}
80002798:	00000013          	nop
8000279c:	01c12083          	lw	ra,28(sp)
800027a0:	01812403          	lw	s0,24(sp)
800027a4:	02010113          	addi	sp,sp,32
800027a8:	00008067          	ret

800027ac <prvResetNextTaskUnblockTime>:
prvResetNextTaskUnblockTime():
/home/arthur/riscv_RV32IM_FreeRTOS/FreeRTOS/Debug/../FreeRTOS/tasks.c:3346

#endif /* INCLUDE_vTaskDelete */
/*-----------------------------------------------------------*/

static void prvResetNextTaskUnblockTime( void )
{
800027ac:	fe010113          	addi	sp,sp,-32
800027b0:	00812e23          	sw	s0,28(sp)
800027b4:	02010413          	addi	s0,sp,32
/home/arthur/riscv_RV32IM_FreeRTOS/FreeRTOS/Debug/../FreeRTOS/tasks.c:3349
TCB_t *pxTCB;

	if( listLIST_IS_EMPTY( pxDelayedTaskList ) != pdFALSE )
800027b8:	9341a783          	lw	a5,-1740(gp) # 80002d04 <pxDelayedTaskList>
800027bc:	0007a783          	lw	a5,0(a5)
800027c0:	00079663          	bnez	a5,800027cc <prvResetNextTaskUnblockTime+0x20>
/home/arthur/riscv_RV32IM_FreeRTOS/FreeRTOS/Debug/../FreeRTOS/tasks.c:3349 (discriminator 1)
800027c4:	00100793          	li	a5,1
800027c8:	0080006f          	j	800027d0 <prvResetNextTaskUnblockTime+0x24>
/home/arthur/riscv_RV32IM_FreeRTOS/FreeRTOS/Debug/../FreeRTOS/tasks.c:3349 (discriminator 2)
800027cc:	00000793          	li	a5,0
/home/arthur/riscv_RV32IM_FreeRTOS/FreeRTOS/Debug/../FreeRTOS/tasks.c:3349 (discriminator 4)
800027d0:	00078863          	beqz	a5,800027e0 <prvResetNextTaskUnblockTime+0x34>
/home/arthur/riscv_RV32IM_FreeRTOS/FreeRTOS/Debug/../FreeRTOS/tasks.c:3355
	{
		/* The new current delayed list is empty.  Set xNextTaskUnblockTime to
		the maximum possible value so it is	extremely unlikely that the
		if( xTickCount >= xNextTaskUnblockTime ) test will pass until
		there is an item in the delayed list. */
		xNextTaskUnblockTime = portMAX_DELAY;
800027d4:	fff00713          	li	a4,-1
800027d8:	96e1a023          	sw	a4,-1696(gp) # 80002d30 <xNextTaskUnblockTime>
/home/arthur/riscv_RV32IM_FreeRTOS/FreeRTOS/Debug/../FreeRTOS/tasks.c:3366
		which the task at the head of the delayed list should be removed
		from the Blocked state. */
		( pxTCB ) = ( TCB_t * ) listGET_OWNER_OF_HEAD_ENTRY( pxDelayedTaskList );
		xNextTaskUnblockTime = listGET_LIST_ITEM_VALUE( &( ( pxTCB )->xGenericListItem ) );
	}
}
800027dc:	0200006f          	j	800027fc <prvResetNextTaskUnblockTime+0x50>
/home/arthur/riscv_RV32IM_FreeRTOS/FreeRTOS/Debug/../FreeRTOS/tasks.c:3363
		( pxTCB ) = ( TCB_t * ) listGET_OWNER_OF_HEAD_ENTRY( pxDelayedTaskList );
800027e0:	9341a783          	lw	a5,-1740(gp) # 80002d04 <pxDelayedTaskList>
800027e4:	00c7a783          	lw	a5,12(a5)
800027e8:	00c7a783          	lw	a5,12(a5)
800027ec:	fef42623          	sw	a5,-20(s0)
/home/arthur/riscv_RV32IM_FreeRTOS/FreeRTOS/Debug/../FreeRTOS/tasks.c:3364
		xNextTaskUnblockTime = listGET_LIST_ITEM_VALUE( &( ( pxTCB )->xGenericListItem ) );
800027f0:	fec42783          	lw	a5,-20(s0)
800027f4:	0047a703          	lw	a4,4(a5)
800027f8:	96e1a023          	sw	a4,-1696(gp) # 80002d30 <xNextTaskUnblockTime>
/home/arthur/riscv_RV32IM_FreeRTOS/FreeRTOS/Debug/../FreeRTOS/tasks.c:3366
}
800027fc:	00000013          	nop
80002800:	01c12403          	lw	s0,28(sp)
80002804:	02010113          	addi	sp,sp,32
80002808:	00008067          	ret

8000280c <PLIC_init>:
PLIC_init():
/home/arthur/riscv_RV32IM_FreeRTOS/FreeRTOS/Debug/../riscv_hal/riscv_plic.h:124
{
8000280c:	fe010113          	addi	sp,sp,-32
80002810:	00812e23          	sw	s0,28(sp)
80002814:	02010413          	addi	s0,sp,32
/home/arthur/riscv_RV32IM_FreeRTOS/FreeRTOS/Debug/../riscv_hal/riscv_plic.h:126
    unsigned long hart_id = read_csr(mhartid);
80002818:	f14027f3          	csrr	a5,mhartid
8000281c:	fef42423          	sw	a5,-24(s0)
80002820:	fe842783          	lw	a5,-24(s0)
80002824:	fef42223          	sw	a5,-28(s0)
/home/arthur/riscv_RV32IM_FreeRTOS/FreeRTOS/Debug/../riscv_hal/riscv_plic.h:129
    for(inc = 0; inc < ((PLIC_NUM_SOURCES + 32u) / 32u); ++inc)
80002828:	fe042623          	sw	zero,-20(s0)
8000282c:	03c0006f          	j	80002868 <PLIC_init+0x5c>
/home/arthur/riscv_RV32IM_FreeRTOS/FreeRTOS/Debug/../riscv_hal/riscv_plic.h:131 (discriminator 3)
        PLIC->TARGET_ENABLES[hart_id].ENABLES[inc] = 0;
80002830:	40000737          	lui	a4,0x40000
80002834:	fe442783          	lw	a5,-28(s0)
80002838:	00579693          	slli	a3,a5,0x5
8000283c:	fec42783          	lw	a5,-20(s0)
80002840:	00f686b3          	add	a3,a3,a5
80002844:	000017b7          	lui	a5,0x1
80002848:	80078793          	addi	a5,a5,-2048 # 800 <HEAP_SIZE-0xf800>
8000284c:	00f687b3          	add	a5,a3,a5
80002850:	00279793          	slli	a5,a5,0x2
80002854:	00f707b3          	add	a5,a4,a5
80002858:	0007a023          	sw	zero,0(a5)
/home/arthur/riscv_RV32IM_FreeRTOS/FreeRTOS/Debug/../riscv_hal/riscv_plic.h:129 (discriminator 3)
    for(inc = 0; inc < ((PLIC_NUM_SOURCES + 32u) / 32u); ++inc)
8000285c:	fec42783          	lw	a5,-20(s0)
80002860:	00178793          	addi	a5,a5,1
80002864:	fef42623          	sw	a5,-20(s0)
/home/arthur/riscv_RV32IM_FreeRTOS/FreeRTOS/Debug/../riscv_hal/riscv_plic.h:129 (discriminator 1)
80002868:	fec42783          	lw	a5,-20(s0)
8000286c:	fc0782e3          	beqz	a5,80002830 <PLIC_init+0x24>
/home/arthur/riscv_RV32IM_FreeRTOS/FreeRTOS/Debug/../riscv_hal/riscv_plic.h:137
    for(inc = 0; inc < PLIC_NUM_SOURCES; ++inc)
80002870:	fe042623          	sw	zero,-20(s0)
80002874:	0240006f          	j	80002898 <PLIC_init+0x8c>
/home/arthur/riscv_RV32IM_FreeRTOS/FreeRTOS/Debug/../riscv_hal/riscv_plic.h:139 (discriminator 3)
        PLIC->SOURCE_PRIORITY[inc] = 0;
80002878:	40000737          	lui	a4,0x40000
8000287c:	fec42783          	lw	a5,-20(s0)
80002880:	00279793          	slli	a5,a5,0x2
80002884:	00f707b3          	add	a5,a4,a5
80002888:	0007a023          	sw	zero,0(a5)
/home/arthur/riscv_RV32IM_FreeRTOS/FreeRTOS/Debug/../riscv_hal/riscv_plic.h:137 (discriminator 3)
    for(inc = 0; inc < PLIC_NUM_SOURCES; ++inc)
8000288c:	fec42783          	lw	a5,-20(s0)
80002890:	00178793          	addi	a5,a5,1
80002894:	fef42623          	sw	a5,-20(s0)
/home/arthur/riscv_RV32IM_FreeRTOS/FreeRTOS/Debug/../riscv_hal/riscv_plic.h:137 (discriminator 1)
80002898:	fec42703          	lw	a4,-20(s0)
8000289c:	01e00793          	li	a5,30
800028a0:	fce7fce3          	bgeu	a5,a4,80002878 <PLIC_init+0x6c>
/home/arthur/riscv_RV32IM_FreeRTOS/FreeRTOS/Debug/../riscv_hal/riscv_plic.h:143
    PLIC->TARGET[hart_id].PRIORITY_THRESHOLD = 0;
800028a4:	40000737          	lui	a4,0x40000
800028a8:	fe442783          	lw	a5,-28(s0)
800028ac:	20078793          	addi	a5,a5,512
800028b0:	00c79793          	slli	a5,a5,0xc
800028b4:	00f707b3          	add	a5,a4,a5
800028b8:	0007a023          	sw	zero,0(a5)
/home/arthur/riscv_RV32IM_FreeRTOS/FreeRTOS/Debug/../riscv_hal/riscv_plic.h:146
    set_csr(mie, MIP_MEIP);
800028bc:	000017b7          	lui	a5,0x1
800028c0:	80078793          	addi	a5,a5,-2048 # 800 <HEAP_SIZE-0xf800>
800028c4:	3047a7f3          	csrrs	a5,mie,a5
800028c8:	fef42023          	sw	a5,-32(s0)
/home/arthur/riscv_RV32IM_FreeRTOS/FreeRTOS/Debug/../riscv_hal/riscv_plic.h:147
}
800028cc:	00000013          	nop
800028d0:	01c12403          	lw	s0,28(sp)
800028d4:	02010113          	addi	sp,sp,32
800028d8:	00008067          	ret

800028dc <main>:
main():
/home/arthur/riscv_RV32IM_FreeRTOS/FreeRTOS/Debug/../main.c:46
void vApplicationStackOverflowHook( TaskHandle_t pxTask, char *pcTaskName );

/*-----------------------------------------------------------*/

int main( void )
{
800028dc:	ff010113          	addi	sp,sp,-16
800028e0:	00112623          	sw	ra,12(sp)
800028e4:	00812423          	sw	s0,8(sp)
800028e8:	01010413          	addi	s0,sp,16
/home/arthur/riscv_RV32IM_FreeRTOS/FreeRTOS/Debug/../main.c:47
    PLIC_init();
800028ec:	f21ff0ef          	jal	ra,8000280c <PLIC_init>
/home/arthur/riscv_RV32IM_FreeRTOS/FreeRTOS/Debug/../main.c:53

    /**************************************************************************
    * Initialize CoreUART with its base address, baud value, and line
    * configuration.
    *************************************************************************/
    UART_init(&g_uart, COREUARTAPB0_BASE_ADDR, BAUD_VALUE_115200,
800028f0:	00100693          	li	a3,1
800028f4:	02c00613          	li	a2,44
800028f8:	700015b7          	lui	a1,0x70001
800028fc:	96818513          	addi	a0,gp,-1688 # 80002d38 <g_uart>
80002900:	c30fe0ef          	jal	ra,80000d30 <UART_init>
/home/arthur/riscv_RV32IM_FreeRTOS/FreeRTOS/Debug/../main.c:57
             (DATA_8_BITS | NO_PARITY) );


    UART_polled_tx_string( &g_uart, (const uint8_t *)"\r\n\r\n		Sample Demonstration of FreeRTOS port for Mi-V processor.\r\n\r\n" );
80002904:	800037b7          	lui	a5,0x80003
80002908:	b0878593          	addi	a1,a5,-1272 # 80002b08 <__stack_top+0xfffc6cf8>
8000290c:	96818513          	addi	a0,gp,-1688 # 80002d38 <g_uart>
80002910:	decfe0ef          	jal	ra,80000efc <UART_polled_tx_string>
/home/arthur/riscv_RV32IM_FreeRTOS/FreeRTOS/Debug/../main.c:58
    UART_polled_tx_string( &g_uart, (const uint8_t *)"		This project creates  two tasks and runs them at regular intervals.\r\n" );
80002914:	800037b7          	lui	a5,0x80003
80002918:	b4c78593          	addi	a1,a5,-1204 # 80002b4c <__stack_top+0xfffc6d3c>
8000291c:	96818513          	addi	a0,gp,-1688 # 80002d38 <g_uart>
80002920:	ddcfe0ef          	jal	ra,80000efc <UART_polled_tx_string>
/home/arthur/riscv_RV32IM_FreeRTOS/FreeRTOS/Debug/../main.c:61

    /* Create the two test tasks. */
 	 xTaskCreate( vUartTestTask1, "UArt1", 1000, NULL, uartPRIMARY_PRIORITY, NULL );
80002924:	00000893          	li	a7,0
80002928:	00000813          	li	a6,0
8000292c:	00000793          	li	a5,0
80002930:	00200713          	li	a4,2
80002934:	00000693          	li	a3,0
80002938:	3e800613          	li	a2,1000
8000293c:	800035b7          	lui	a1,0x80003
80002940:	b9458593          	addi	a1,a1,-1132 # 80002b94 <__stack_top+0xfffc6d84>
80002944:	80003537          	lui	a0,0x80003
80002948:	9c850513          	addi	a0,a0,-1592 # 800029c8 <__stack_top+0xfffc6bb8>
8000294c:	a6cff0ef          	jal	ra,80001bb8 <xTaskGenericCreate>
/home/arthur/riscv_RV32IM_FreeRTOS/FreeRTOS/Debug/../main.c:64

    //           task  taskname stack  parameter  priority      handler
    xTaskCreate( myTask1, "task1", 1000, NULL, tskIDLE_PRIORITY, NULL );
80002950:	00000893          	li	a7,0
80002954:	00000813          	li	a6,0
80002958:	00000793          	li	a5,0
8000295c:	00000713          	li	a4,0
80002960:	00000693          	li	a3,0
80002964:	3e800613          	li	a2,1000
80002968:	800035b7          	lui	a1,0x80003
8000296c:	b9c58593          	addi	a1,a1,-1124 # 80002b9c <__stack_top+0xfffc6d8c>
80002970:	80003537          	lui	a0,0x80003
80002974:	9f850513          	addi	a0,a0,-1544 # 800029f8 <__stack_top+0xfffc6be8>
80002978:	a40ff0ef          	jal	ra,80001bb8 <xTaskGenericCreate>
/home/arthur/riscv_RV32IM_FreeRTOS/FreeRTOS/Debug/../main.c:68


	/* Start the kernel.  From here on, only tasks and interrupts will run. */
	vTaskStartScheduler();
8000297c:	cdcff0ef          	jal	ra,80001e58 <vTaskStartScheduler>
/home/arthur/riscv_RV32IM_FreeRTOS/FreeRTOS/Debug/../main.c:71

	/* Exit FreeRTOS */
	return 0;
80002980:	00000793          	li	a5,0
/home/arthur/riscv_RV32IM_FreeRTOS/FreeRTOS/Debug/../main.c:72
}
80002984:	00078513          	mv	a0,a5
80002988:	00c12083          	lw	ra,12(sp)
8000298c:	00812403          	lw	s0,8(sp)
80002990:	01010113          	addi	sp,sp,16
80002994:	00008067          	ret

80002998 <vApplicationMallocFailedHook>:
vApplicationMallocFailedHook():
/home/arthur/riscv_RV32IM_FreeRTOS/FreeRTOS/Debug/../main.c:77

/*-----------------------------------------------------------*/

void vApplicationMallocFailedHook( void )
{
80002998:	ff010113          	addi	sp,sp,-16
8000299c:	00812623          	sw	s0,12(sp)
800029a0:	01010413          	addi	s0,sp,16
/home/arthur/riscv_RV32IM_FreeRTOS/FreeRTOS/Debug/../main.c:88
	demo application.  If heap_1.c or heap_2.c are used, then the size of the
	heap available to pvPortMalloc() is defined by configTOTAL_HEAP_SIZE in
	FreeRTOSConfig.h, and the xPortGetFreeHeapSize() API function can be used
	to query the size of free heap space that remains (although it does not
	provide information on how the remaining heap might be fragmented). */
	taskDISABLE_INTERRUPTS();
800029a4:	30047073          	csrci	mstatus,8
/home/arthur/riscv_RV32IM_FreeRTOS/FreeRTOS/Debug/../main.c:89 (discriminator 1)
	for( ;; );
800029a8:	0000006f          	j	800029a8 <vApplicationMallocFailedHook+0x10>

800029ac <vApplicationIdleHook>:
vApplicationIdleHook():
/home/arthur/riscv_RV32IM_FreeRTOS/FreeRTOS/Debug/../main.c:94
}
/*-----------------------------------------------------------*/

void vApplicationIdleHook( void )
{
800029ac:	ff010113          	addi	sp,sp,-16
800029b0:	00812623          	sw	s0,12(sp)
800029b4:	01010413          	addi	s0,sp,16
/home/arthur/riscv_RV32IM_FreeRTOS/FreeRTOS/Debug/../main.c:104
	specified, or call vTaskDelay()).  If the application makes use of the
	vTaskDelete() API function (as this demo application does) then it is also
	important that vApplicationIdleHook() is permitted to return to its calling
	function, because it is the responsibility of the idle task to clean up
	memory allocated by the kernel to any task that has since been deleted. */
}
800029b8:	00000013          	nop
800029bc:	00c12403          	lw	s0,12(sp)
800029c0:	01010113          	addi	sp,sp,16
800029c4:	00008067          	ret

800029c8 <vUartTestTask1>:
vUartTestTask1():
/home/arthur/riscv_RV32IM_FreeRTOS/FreeRTOS/Debug/../main.c:121
	for( ;; );
}
/*-----------------------------------------------------------*/

static void vUartTestTask1( void *pvParameters )
{
800029c8:	fe010113          	addi	sp,sp,-32
800029cc:	00112e23          	sw	ra,28(sp)
800029d0:	00812c23          	sw	s0,24(sp)
800029d4:	02010413          	addi	s0,sp,32
800029d8:	fea42623          	sw	a0,-20(s0)
/home/arthur/riscv_RV32IM_FreeRTOS/FreeRTOS/Debug/../main.c:126 (discriminator 1)
	( void ) pvParameters;

	for( ;; )
	{
		UART_polled_tx_string( &g_uart, (const uint8_t *)"Task - 1 - oie\r\n" );
800029dc:	800037b7          	lui	a5,0x80003
800029e0:	ba478593          	addi	a1,a5,-1116 # 80002ba4 <__stack_top+0xfffc6d94>
800029e4:	96818513          	addi	a0,gp,-1688 # 80002d38 <g_uart>
800029e8:	d14fe0ef          	jal	ra,80000efc <UART_polled_tx_string>
/home/arthur/riscv_RV32IM_FreeRTOS/FreeRTOS/Debug/../main.c:127 (discriminator 1)
	    vTaskDelay(100);
800029ec:	06400513          	li	a0,100
800029f0:	be4ff0ef          	jal	ra,80001dd4 <vTaskDelay>
/home/arthur/riscv_RV32IM_FreeRTOS/FreeRTOS/Debug/../main.c:126 (discriminator 1)
		UART_polled_tx_string( &g_uart, (const uint8_t *)"Task - 1 - oie\r\n" );
800029f4:	fe9ff06f          	j	800029dc <vUartTestTask1+0x14>

800029f8 <myTask1>:
myTask1():
/home/arthur/riscv_RV32IM_FreeRTOS/FreeRTOS/Debug/../main.c:148
}

/*-----------------------------------------------------------*/

static void myTask1( void *pvParameters )
{
800029f8:	fd010113          	addi	sp,sp,-48
800029fc:	02112623          	sw	ra,44(sp)
80002a00:	02812423          	sw	s0,40(sp)
80002a04:	03010413          	addi	s0,sp,48
80002a08:	fca42e23          	sw	a0,-36(s0)
/home/arthur/riscv_RV32IM_FreeRTOS/FreeRTOS/Debug/../main.c:151
	( void ) pvParameters;

    volatile unsigned int * tbr = tbr_addr;
80002a0c:	700087b7          	lui	a5,0x70008
80002a10:	fef42623          	sw	a5,-20(s0)
/home/arthur/riscv_RV32IM_FreeRTOS/FreeRTOS/Debug/../main.c:152
    *tbr = 10;
80002a14:	fec42783          	lw	a5,-20(s0)
80002a18:	00a00713          	li	a4,10
80002a1c:	00e7a023          	sw	a4,0(a5) # 70008000 <RAM_SIZE+0x6ff88000>
/home/arthur/riscv_RV32IM_FreeRTOS/FreeRTOS/Debug/../main.c:153
    vTaskDelay(5);
80002a20:	00500513          	li	a0,5
80002a24:	bb0ff0ef          	jal	ra,80001dd4 <vTaskDelay>
/home/arthur/riscv_RV32IM_FreeRTOS/FreeRTOS/Debug/../main.c:155
    unsigned int test;
    test = *tbr;
80002a28:	fec42783          	lw	a5,-20(s0)
80002a2c:	0007a783          	lw	a5,0(a5)
80002a30:	fef42423          	sw	a5,-24(s0)
/home/arthur/riscv_RV32IM_FreeRTOS/FreeRTOS/Debug/../main.c:156
    vTaskDelay(5);
80002a34:	00500513          	li	a0,5
80002a38:	b9cff0ef          	jal	ra,80001dd4 <vTaskDelay>
/home/arthur/riscv_RV32IM_FreeRTOS/FreeRTOS/Debug/../main.c:158

}
80002a3c:	00000013          	nop
80002a40:	02c12083          	lw	ra,44(sp)
80002a44:	02812403          	lw	s0,40(sp)
80002a48:	03010113          	addi	sp,sp,48
80002a4c:	00008067          	ret

80002a50 <write>:
write():
80002a50:	00060693          	mv	a3,a2
80002a54:	00058613          	mv	a2,a1
80002a58:	00050593          	mv	a1,a0
80002a5c:	00000517          	auipc	a0,0x0
80002a60:	18452503          	lw	a0,388(a0) # 80002be0 <_impure_ptr>
80002a64:	0040006f          	j	80002a68 <_write_r>

80002a68 <_write_r>:
_write_r():
80002a68:	ff010113          	addi	sp,sp,-16
80002a6c:	00812423          	sw	s0,8(sp)
80002a70:	00050413          	mv	s0,a0
80002a74:	00058513          	mv	a0,a1
80002a78:	00060593          	mv	a1,a2
80002a7c:	00068613          	mv	a2,a3
80002a80:	9001aa23          	sw	zero,-1772(gp) # 80002ce4 <errno>
80002a84:	00112623          	sw	ra,12(sp)
80002a88:	8e8fe0ef          	jal	ra,80000b70 <_write>
80002a8c:	fff00793          	li	a5,-1
80002a90:	00f51863          	bne	a0,a5,80002aa0 <_write_r+0x38>
80002a94:	9141a783          	lw	a5,-1772(gp) # 80002ce4 <errno>
80002a98:	00078463          	beqz	a5,80002aa0 <_write_r+0x38>
80002a9c:	00f42023          	sw	a5,0(s0)
80002aa0:	00c12083          	lw	ra,12(sp)
80002aa4:	00812403          	lw	s0,8(sp)
80002aa8:	01010113          	addi	sp,sp,16
80002aac:	00008067          	ret
80002ab0:	6568                	flw	fa0,76(a0)
80002ab2:	6c6c                	flw	fa1,92(s0)
80002ab4:	0000006f          	j	80002ab4 <_write_r+0x4c>
80002ab8:	7274                	flw	fa3,100(a2)
80002aba:	7061                	c.lui	zero,0xffff8
80002abc:	000a                	c.slli	zero,0x2
80002abe:	0000                	unimp
80002ac0:	7830                	flw	fa2,112(s0)
80002ac2:	0000                	unimp
80002ac4:	500a                	0x500a
80002ac6:	6f72                	flw	ft10,28(sp)
80002ac8:	206d6167          	0x206d6167
80002acc:	6168                	flw	fa0,68(a0)
80002ace:	78652073          	csrs	0x786,a0
80002ad2:	7469                	lui	s0,0xffffa
80002ad4:	6465                	lui	s0,0x19
80002ad6:	7720                	flw	fs0,104(a4)
80002ad8:	7469                	lui	s0,0xffffa
80002ada:	2068                	fld	fa0,192(s0)
80002adc:	65646f63          	bltu	s0,s6,8000313a <ucHeap+0x3fa>
80002ae0:	003a                	c.slli	zero,0xe
80002ae2:	0000                	unimp
80002ae4:	000d                	c.nop	3
80002ae6:	0000                	unimp
80002ae8:	4449                	li	s0,18
80002aea:	454c                	lw	a1,12(a0)
80002aec:	0000                	unimp
80002aee:	0000                	unimp
80002af0:	0a0d                	addi	s4,s4,3
80002af2:	7246                	flw	ft4,112(sp)
80002af4:	6565                	lui	a0,0x19
80002af6:	5452                	lw	s0,52(sp)
80002af8:	4520534f          	fnmadd.h	ft6,ft0,fs2,fs0,unknown
80002afc:	6178                	flw	fa4,68(a0)
80002afe:	706d                	c.lui	zero,0xffffb
80002b00:	656c                	flw	fa1,76(a0)
80002b02:	0a0d                	addi	s4,s4,3
80002b04:	0000                	unimp
80002b06:	0000                	unimp
80002b08:	0a0d                	addi	s4,s4,3
80002b0a:	0a0d                	addi	s4,s4,3
80002b0c:	0909                	addi	s2,s2,2
80002b0e:	706d6153          	0x706d6153
80002b12:	656c                	flw	fa1,76(a0)
80002b14:	4420                	lw	s0,72(s0)
80002b16:	6d65                	lui	s10,0x19
80002b18:	74736e6f          	jal	t3,80039a5e <__heap_end+0xdc4e>
80002b1c:	6172                	flw	ft2,28(sp)
80002b1e:	6974                	flw	fa3,84(a0)
80002b20:	6f206e6f          	jal	t3,80009212 <__global_pointer$+0x5e42>
80002b24:	2066                	fld	ft0,88(sp)
80002b26:	7246                	flw	ft4,112(sp)
80002b28:	6565                	lui	a0,0x19
80002b2a:	5452                	lw	s0,52(sp)
80002b2c:	7020534f          	fnmadd.s	ft6,ft0,ft2,fa4,unknown
80002b30:	2074726f          	jal	tp,8004a536 <__stack_top+0xe726>
80002b34:	6f66                	flw	ft10,88(sp)
80002b36:	2072                	fld	ft0,280(sp)
80002b38:	694d                	lui	s2,0x13
80002b3a:	562d                	li	a2,-21
80002b3c:	7020                	flw	fs0,96(s0)
80002b3e:	6f72                	flw	ft10,28(sp)
80002b40:	73736563          	bltu	t1,s7,8000326a <ucHeap+0x52a>
80002b44:	0d2e726f          	jal	tp,800e9c16 <__stack_top+0xade06>
80002b48:	0d0a                	slli	s10,s10,0x2
80002b4a:	000a                	c.slli	zero,0x2
80002b4c:	0909                	addi	s2,s2,2
80002b4e:	6854                	flw	fa3,20(s0)
80002b50:	7369                	lui	t1,0xffffa
80002b52:	7020                	flw	fs0,96(s0)
80002b54:	6f72                	flw	ft10,28(sp)
80002b56:	656a                	flw	fa0,152(sp)
80002b58:	63207463          	bgeu	zero,s2,80003180 <ucHeap+0x440>
80002b5c:	6572                	flw	fa0,28(sp)
80002b5e:	7461                	lui	s0,0xffff8
80002b60:	7365                	lui	t1,0xffff9
80002b62:	2020                	fld	fs0,64(s0)
80002b64:	7774                	flw	fa3,108(a4)
80002b66:	6174206f          	j	8004597c <__stack_top+0x9b6c>
80002b6a:	20736b73          	csrrsi	s6,0x207,6
80002b6e:	6e61                	lui	t3,0x18
80002b70:	2064                	fld	fs1,192(s0)
80002b72:	7572                	flw	fa0,60(sp)
80002b74:	736e                	flw	ft6,248(sp)
80002b76:	7420                	flw	fs0,104(s0)
80002b78:	6568                	flw	fa0,76(a0)
80002b7a:	206d                	jal	80002c24 <ext_irq_handler_table+0x34>
80002b7c:	7461                	lui	s0,0xffff8
80002b7e:	7220                	flw	fs0,96(a2)
80002b80:	6765                	lui	a4,0x19
80002b82:	6c75                	lui	s8,0x1d
80002b84:	7261                	lui	tp,0xffff8
80002b86:	6920                	flw	fs0,80(a0)
80002b88:	746e                	flw	fs0,248(sp)
80002b8a:	7265                	lui	tp,0xffff9
80002b8c:	6176                	flw	ft2,92(sp)
80002b8e:	736c                	flw	fa1,100(a4)
80002b90:	0d2e                	slli	s10,s10,0xb
80002b92:	000a                	c.slli	zero,0x2
80002b94:	4155                	li	sp,21
80002b96:	7472                	flw	fs0,60(sp)
80002b98:	0031                	c.nop	12
80002b9a:	0000                	unimp
80002b9c:	6174                	flw	fa3,68(a0)
80002b9e:	00316b73          	csrrsi	s6,fcsr,2
80002ba2:	0000                	unimp
80002ba4:	6154                	flw	fa3,4(a0)
80002ba6:	2d206b73          	csrrsi	s6,0x2d2,0
80002baa:	3120                	fld	fs0,96(a0)
80002bac:	2d20                	fld	fs0,88(a0)
80002bae:	6f20                	flw	fs0,88(a4)
80002bb0:	6569                	lui	a0,0x1a
80002bb2:	0a0d                	addi	s4,s4,3
80002bb4:	0000                	unimp
80002bb6:	0000                	unimp
80002bb8:	6154                	flw	fa3,4(a0)
80002bba:	2d206b73          	csrrsi	s6,0x2d2,0
80002bbe:	7420                	flw	fs0,104(s0)
80002bc0:	7365                	lui	t1,0xffff9
80002bc2:	6574                	flw	fa3,76(a0)
80002bc4:	6574                	flw	fa3,76(a0)
80002bc6:	0a0d                	addi	s4,s4,3
	...
